

Microchip MPLAB XC8 Assembler V2.40 build 20220703182018 
                                                                                               Wed Jan 11 23:42:40 2023

Microchip MPLAB XC8 C Compiler v2.40 (Free license) build 20220703182018 Og1 
     1                           	processor	18F46K22
     2                           	fnconf	rparam,??,?,0
     3                           	pagewidth 120
     4                           	opt	flic
     5                           	psect	smallconst,global,reloc=2,class=SMALLCONST,delta=1,noexec
     6                           	psect	cinit,global,reloc=2,class=CODE,delta=1
     7                           	psect	bssCOMRAM,global,class=COMRAM,space=1,delta=1,lowdata,noexec
     8                           	psect	cstackCOMRAM,global,class=COMRAM,space=1,delta=1,lowdata,noexec
     9                           	psect	text0,global,reloc=2,class=CODE,delta=1
    10                           	psect	text1,global,reloc=2,class=CODE,delta=1
    11                           	psect	text2,global,reloc=2,class=CODE,delta=1
    12                           	psect	text3,global,reloc=2,class=CODE,delta=1
    13                           	psect	text4,global,reloc=2,class=CODE,delta=1
    14                           	psect	text5,global,reloc=2,class=CODE,delta=1
    15                           	psect	text6,global,reloc=2,class=CODE,delta=1
    16                           	psect	text7,global,reloc=2,class=CODE,delta=1
    17                           	psect	text8,global,reloc=2,class=CODE,delta=1
    18                           	psect	text9,global,reloc=2,class=CODE,delta=1
    19                           	psect	text10,global,reloc=2,class=CODE,delta=1
    20                           	psect	text11,global,reloc=2,class=CODE,delta=1
    21                           	psect	text12,global,reloc=2,class=CODE,delta=1
    22                           	psect	text13,global,reloc=2,class=CODE,delta=1
    23                           	psect	text14,global,reloc=2,class=CODE,delta=1
    24                           	psect	text15,global,reloc=2,class=CODE,delta=1
    25                           	psect	text16,global,reloc=2,class=CODE,delta=1
    26                           	psect	intcode,global,reloc=2,class=CODE,delta=1
    27                           	psect	intsave_regs,global,class=BIGRAM,space=1,delta=1,noexec
    28                           	psect	rparam,global,class=COMRAM,space=1,delta=1,noexec
    29                           	psect	temp,global,ovrld,common,class=COMRAM,space=1,delta=1
    30                           	psect	idloc,global,abs,ovrld,class=IDLOC,space=5,delta=1,noexec
    31                           	psect	config,global,abs,ovrld,class=CONFIG,space=4,delta=1,noexec
    32   000000                     
    33                           ; Generated 06/04/2022 GMT
    34                           ; 
    35                           ; Copyright © 2022, Microchip Technology Inc. and its subsidiaries ("Microchip")
    36                           ; All rights reserved.
    37                           ; 
    38                           ; This software is developed by Microchip Technology Inc. and its subsidiaries ("Microch
      +                          ip").
    39                           ; 
    40                           ; Redistribution and use in source and binary forms, with or without modification, are
    41                           ; permitted provided that the following conditions are met:
    42                           ; 
    43                           ;     1. Redistributions of source code must retain the above copyright notice, this lis
      +                          t of
    44                           ;        conditions and the following disclaimer.
    45                           ; 
    46                           ;     2. Redistributions in binary form must reproduce the above copyright notice, this 
      +                          list
    47                           ;        of conditions and the following disclaimer in the documentation and/or other
    48                           ;        materials provided with the distribution. Publication is not required when
    49                           ;        this file is used in an embedded application.
    50                           ; 
    51                           ;     3. Microchip's name may not be used to endorse or promote products derived from th
      +                          is
    52                           ;        software without specific prior written permission.
    53                           ; 
    54                           ; THIS SOFTWARE IS PROVIDED BY MICROCHIP "AS IS" AND ANY EXPRESS OR IMPLIED WARRANTIES,
    55                           ; INCLUDING, BUT NOT LIMITED TO, THE IMPLIED WARRANTIES OF MERCHANTABILITY AND FITNESS F
      +                          OR
    56                           ; PURPOSE ARE DISCLAIMED.  IN NO EVENT SHALL MICROCHIP BE LIABLE FOR ANY DIRECT, INDIREC
      +                          T,
    57                           ; INCIDENTAL, SPECIAL, EXEMPLARY, OR CONSEQUENTIAL DAMAGES (INCLUDING BUT NOT LIMITED TO
    58                           ; PROCUREMENT OF SUBSTITUTE GOODS OR SERVICES; LOSS OF USE, DATA OR PROFITS; OR BUSINESS
    59                           ; INTERRUPTION) HOWSOEVER CAUSED AND ON ANY THEORY OF LIABILITY, WHETHER IN CONTRACT, ST
      +                          RICT
    60                           ; LIABILITY, OR TORT (INCLUDING NEGLIGENCE OR OTHERWISE) ARISING IN ANY WAY OUT OF THE U
      +                          SE OF
    61                           ; THIS SOFTWARE, EVEN IF ADVISED OF THE POSSIBILITY OF SUCH DAMAGE.
    62                           ; 
    63                           ; 
    64                           ; Code-generator required, PIC18F46K22 Definitions
    65                           ; 
    66                           ; SFR Addresses
    67   000000                     
    68                           	psect	smallconst
    69   001000                     __psmallconst:
    70                           	callstack 0
    71   001000  00                 	db	0
    72   001001                     lm629_velocity@lookup_table:
    73                           	callstack 0
    74   001001  88B8               	dw	35000
    75   001003  0002               	dw	2
    76   001005  602D               	dw	24621
    77   001007  0002               	dw	2
    78   001009  37A1               	dw	14241
    79   00100B  0002               	dw	2
    80   00100D  0F16               	dw	3862
    81   00100F  0002               	dw	2
    82   001011  E68A               	dw	59018
    83   001013  0001               	dw	1
    84   001015  BDFF               	dw	48639
    85   001017  0001               	dw	1
    86   001019  9573               	dw	38259
    87   00101B  0001               	dw	1
    88   00101D  6CE8               	dw	27880
    89   00101F  0001               	dw	1
    90   001021  445C               	dw	17500
    91   001023  0001               	dw	1
    92   001025  1BD1               	dw	7121
    93   001027  0001               	dw	1
    94   001029  F345               	dw	62277
    95   00102B  0000               	dw	0
    96   00102D  CABA               	dw	51898
    97   00102F  0000               	dw	0
    98   001031  A22E               	dw	41518
    99   001033  0000               	dw	0
   100   001035  79A3               	dw	31139
   101   001037  0000               	dw	0
   102   001039  5117               	dw	20759
   103   00103B  0000               	dw	0
   104   00103D  288C               	dw	10380
   105   00103F  0000               	dw	0
   106   001041  0000               	dw	0
   107   001043  0000               	dw	0
   108   001045  2B3F               	dw	11071
   109   001047  0000               	dw	0
   110   001049  567F               	dw	22143
   111   00104B  0000               	dw	0
   112   00104D  81BE               	dw	33214
   113   00104F  0000               	dw	0
   114   001051  ACFE               	dw	44286
   115   001053  0000               	dw	0
   116   001055  D83D               	dw	55357
   117   001057  0000               	dw	0
   118   001059  037D               	dw	893
   119   00105B  0001               	dw	1
   120   00105D  2EBC               	dw	11964
   121   00105F  0001               	dw	1
   122   001061  59FC               	dw	23036
   123   001063  0001               	dw	1
   124   001065  853B               	dw	34107
   125   001067  0001               	dw	1
   126   001069  B07B               	dw	45179
   127   00106B  0001               	dw	1
   128   00106D  DBBA               	dw	56250
   129   00106F  0001               	dw	1
   130   001071  06FA               	dw	1786
   131   001073  0002               	dw	2
   132   001075  3239               	dw	12857
   133   001077  0002               	dw	2
   134   001079  5D79               	dw	23929
   135   00107B  0002               	dw	2
   136   00107D  88B8               	dw	35000
   137   00107F  0002               	dw	2
   138   001081                     __end_oflm629_velocity@lookup_table:
   139                           	callstack 0
   140   000000                     _TRISC	set	3988
   141   000000                     _TRISB	set	3987
   142   000000                     _TRISD	set	3989
   143   000000                     _SSP1CON1bits	set	4038
   144   000000                     _TRISAbits	set	3986
   145   000000                     _TRISBbits	set	3987
   146   000000                     _TRISCbits	set	3988
   147   000000                     _TRISDbits	set	3989
   148   000000                     _GIE	set	32663
   149   000000                     _PEIE	set	32662
   150   000000                     _VREFCON1	set	3905
   151   000000                     _VREFCON0	set	3906
   152   000000                     _CTMUCONH	set	3909
   153   000000                     _SSP2CON1	set	3948
   154   000000                     _SSP1CON1	set	4038
   155   000000                     _ANSELE	set	3900
   156   000000                     _ANSELD	set	3899
   157   000000                     _ANSELC	set	3898
   158   000000                     _ANSELB	set	3897
   159   000000                     _ANSELA	set	3896
   160   000000                     _RCON	set	4048
   161   000000                     _INTCON	set	4082
   162   000000                     _SSP1BUF	set	4041
   163   000000                     _SSP1CON3	set	4043
   164   000000                     _SSP1STATbits	set	4039
   165   000000                     _CM2CON0	set	3960
   166   000000                     _CM1CON0	set	3961
   167   000000                     _PORTAbits	set	3968
   168   000000                     _PORTBbits	set	3969
   169   000000                     _PORTCbits	set	3970
   170   000000                     _TRISA	set	3986
   171   000000                     _HLVDCON	set	3996
   172   000000                     _SRCON0	set	3911
   173   000000                     _PIR1bits	set	3998
   174   000000                     _ADCON1	set	4033
   175   000000                     _ADCON0	set	4034
   176   000000                     _SSP1IE	set	31979
   177   000000                     _PORTDbits	set	3971
   178   001081  00                 	db	0	; dummy byte at the end
   179   000000                     
   180                           ; #config settings
   181                           
   182                           	psect	cinit
   183   00183E                     __pcinit:
   184                           	callstack 0
   185   00183E                     start_initialization:
   186                           	callstack 0
   187   00183E                     __initialization:
   188                           	callstack 0
   189                           
   190                           ; Clear objects allocated to COMRAM (14 bytes)
   191   00183E  EE00  F020         	lfsr	0,__pbssCOMRAM
   192   001842  0E0E               	movlw	14
   193   001844                     clear_0:
   194   001844  6AEE               	clrf	postinc0,c
   195   001846  06E8               	decf	wreg,f,c
   196   001848  E1FD               	bnz	clear_0
   197   00184A                     end_of_initialization:
   198                           	callstack 0
   199   00184A                     __end_of__initialization:
   200                           	callstack 0
   201   00184A  902E               	bcf	int$flags,0,c	;clear compiler interrupt flag (level 1)
   202   00184C  922E               	bcf	int$flags,1,c	;clear compiler interrupt flag (level 2)
   203   00184E  0E00               	movlw	low (__Lmediumconst shr (0+16))
   204   001850  6EF8               	movwf	tblptru,c
   205   001852  0100               	movlb	0
   206   001854  EF0D  F00A         	goto	_main	;jump to C main() function
   207                           
   208                           	psect	bssCOMRAM
   209   000020                     __pbssCOMRAM:
   210                           	callstack 0
   211   000020                     _classic_ctrl:
   212                           	callstack 0
   213   000020                     	ds	4
   214   000024                     _spi_str_interrupt:
   215                           	callstack 0
   216   000024                     	ds	2
   217   000026                     _recording_on:
   218                           	callstack 0
   219   000026                     	ds	1
   220   000027                     _spi_read_data:
   221                           	callstack 0
   222   000027                     	ds	1
   223   000028                     _signal_distribution_packet:
   224                           	callstack 0
   225   000028                     	ds	6
   226                           
   227                           	psect	cstackCOMRAM
   228   000001                     __pcstackCOMRAM:
   229                           	callstack 0
   230   000001                     ??_SPI_ISR:
   231                           
   232                           ; 1 bytes @ 0x0
   233   000001                     	ds	6
   234   000007                     ?_lm629_velocity:
   235                           	callstack 0
   236   000007                     DATABUS_DIR@dir:
   237                           	callstack 0
   238   000007                     DATABUS@byte0:
   239                           	callstack 0
   240   000007                     chip_select@chip:
   241                           	callstack 0
   242   000007                     spi_data@tx_data:
   243                           	callstack 0
   244                           
   245                           ; 1 bytes @ 0x6
   246   000007                     	ds	1
   247   000008                     ??_DATABUS:
   248                           
   249                           ; 1 bytes @ 0x7
   250   000008                     	ds	2
   251   00000A                     DATABUS@dir1:
   252                           	callstack 0
   253                           
   254                           ; 1 bytes @ 0x9
   255   00000A                     	ds	1
   256   00000B                     DATABUS@x:
   257                           	callstack 0
   258   00000B                     lm629_velocity@velocity:
   259                           	callstack 0
   260                           
   261                           ; 4 bytes @ 0xA
   262   00000B                     	ds	1
   263   00000C                     read_status@status:
   264                           	callstack 0
   265                           
   266                           ; 1 bytes @ 0xB
   267   00000C                     	ds	1
   268   00000D                     check_busy@x:
   269                           	callstack 0
   270                           
   271                           ; 1 bytes @ 0xC
   272   00000D                     	ds	1
   273   00000E                     write_data@LSB:
   274                           	callstack 0
   275   00000E                     write_command@command:
   276                           	callstack 0
   277                           
   278                           ; 1 bytes @ 0xD
   279   00000E                     	ds	1
   280   00000F                     lm629_velocity@analog_value:
   281                           	callstack 0
   282   00000F                     write_data@MSB:
   283                           	callstack 0
   284                           
   285                           ; 1 bytes @ 0xE
   286   00000F                     	ds	1
   287   000010                     set_absolute_velocity@analog_in:
   288                           	callstack 0
   289   000010                     set_absolute_acceleration@acceleration_value:
   290                           	callstack 0
   291                           
   292                           ; 4 bytes @ 0xF
   293   000010                     	ds	1
   294   000011                     ??_set_absolute_velocity:
   295                           
   296                           ; 1 bytes @ 0x10
   297   000011                     	ds	2
   298   000013                     set_absolute_velocity@high_word_MSB:
   299                           	callstack 0
   300                           
   301                           ; 1 bytes @ 0x12
   302   000013                     	ds	1
   303   000014                     set_absolute_acceleration@motor:
   304                           	callstack 0
   305   000014                     set_absolute_velocity@high_word_LSB:
   306                           	callstack 0
   307                           
   308                           ; 1 bytes @ 0x13
   309   000014                     	ds	1
   310   000015                     set_absolute_acceleration@trajectory_control_LSB:
   311                           	callstack 0
   312   000015                     set_absolute_velocity@low_word_MSB:
   313                           	callstack 0
   314                           
   315                           ; 1 bytes @ 0x14
   316   000015                     	ds	1
   317   000016                     set_absolute_acceleration@high_word_MSB:
   318                           	callstack 0
   319   000016                     set_absolute_velocity@low_word_LSB:
   320                           	callstack 0
   321                           
   322                           ; 1 bytes @ 0x15
   323   000016                     	ds	1
   324   000017                     set_absolute_acceleration@high_word_LSB:
   325                           	callstack 0
   326   000017                     set_absolute_velocity@motor:
   327                           	callstack 0
   328                           
   329                           ; 1 bytes @ 0x16
   330   000017                     	ds	1
   331   000018                     set_absolute_acceleration@low_word_MSB:
   332                           	callstack 0
   333   000018                     set_absolute_velocity@trajectory_control_MSB:
   334                           	callstack 0
   335                           
   336                           ; 1 bytes @ 0x17
   337   000018                     	ds	1
   338   000019                     set_absolute_acceleration@low_word_LSB:
   339                           	callstack 0
   340   000019                     set_absolute_velocity@velocity_value:
   341                           	callstack 0
   342                           
   343                           ; 4 bytes @ 0x18
   344   000019                     	ds	1
   345   00001A                     ??_LM629_init:
   346                           
   347                           ; 1 bytes @ 0x19
   348   00001A                     	ds	1
   349   00001B                     LM629_init@x:
   350                           	callstack 0
   351                           
   352                           ; 1 bytes @ 0x1A
   353   00001B                     	ds	2
   354   00001D                     ??_main:
   355                           
   356                           ; 1 bytes @ 0x1C
   357   00001D                     	ds	2
   358   00001F                     main@dummy_data:
   359                           	callstack 0
   360                           
   361                           ; 1 bytes @ 0x1E
   362   00001F                     	ds	1
   363                           
   364 ;;
   365 ;;Main: autosize = 0, tempsize = 2, incstack = 0, save=0
   366 ;;
   367 ;; *************** function _main *****************
   368 ;; Defined at:
   369 ;;		line 27 in file "main.c"
   370 ;; Parameters:    Size  Location     Type
   371 ;;		None
   372 ;; Auto vars:     Size  Location     Type
   373 ;;  dummy_data      1   30[COMRAM] unsigned char 
   374 ;;  received_dat    1    0        unsigned char 
   375 ;; Return value:  Size  Location     Type
   376 ;;                  1    wreg      void 
   377 ;; Registers used:
   378 ;;		wreg, status,2, status,0, tblptrl, tblptrh, tblptru, prodl, prodh, cstack
   379 ;; Tracked objects:
   380 ;;		On entry : 0/0
   381 ;;		On exit  : 0/0
   382 ;;		Unchanged: 0/0
   383 ;; Data sizes:     COMRAM   BANK0   BANK1   BANK2   BANK3   BANK4   BANK5   BANK6   BANK7   BANK8   BANK9  BANK10  BANK1
      +1  BANK12  BANK13  BANK14  BANK15
   384 ;;      Params:         0       0       0       0       0       0       0       0       0       0       0       0       
      +0       0       0       0       0
   385 ;;      Locals:         1       0       0       0       0       0       0       0       0       0       0       0       
      +0       0       0       0       0
   386 ;;      Temps:          2       0       0       0       0       0       0       0       0       0       0       0       
      +0       0       0       0       0
   387 ;;      Totals:         3       0       0       0       0       0       0       0       0       0       0       0       
      +0       0       0       0       0
   388 ;;Total ram usage:        3 bytes
   389 ;; Hardware stack levels required when called: 7
   390 ;; This function calls:
   391 ;;		_LM629_init
   392 ;;		_all_off
   393 ;;		_set_absolute_velocity
   394 ;;		_spi_data
   395 ;;		_spi_slave_init
   396 ;; This function is called by:
   397 ;;		Startup code after reset
   398 ;; This function uses a non-reentrant model
   399 ;;
   400                           
   401                           	psect	text0
   402   00141A                     __ptext0:
   403                           	callstack 0
   404   00141A                     _main:
   405                           	callstack 24
   406   00141A                     
   407                           ;main.c: 32:     dummy_data = 0x55;
   408   00141A  0E55               	movlw	85
   409   00141C  6E1F               	movwf	main@dummy_data^0,c
   410   00141E                     
   411                           ;main.c: 33:     RCON &= 0x7F;
   412   00141E  9ED0               	bcf	208,7,c	;volatile
   413   001420                     
   414                           ;main.c: 34:     INTCON=0;
   415   001420  0E00               	movlw	0
   416   001422  6EF2               	movwf	242,c	;volatile
   417   001424                     
   418                           ;main.c: 35:     ANSELA=0;
   419   001424  0E00               	movlw	0
   420   001426  010F               	movlb	15	; () banked
   421   001428  6F38               	movwf	56,b	;volatile
   422   00142A                     
   423                           ; BSR set to: 15
   424                           ;main.c: 36:     ANSELB=0;
   425   00142A  0E00               	movlw	0
   426   00142C  6F39               	movwf	57,b	;volatile
   427   00142E                     
   428                           ; BSR set to: 15
   429                           ;main.c: 37:     ANSELC=0;
   430   00142E  0E00               	movlw	0
   431   001430  6F3A               	movwf	58,b	;volatile
   432   001432                     
   433                           ; BSR set to: 15
   434                           ;main.c: 38:     ANSELD=0;
   435   001432  0E00               	movlw	0
   436   001434  6F3B               	movwf	59,b	;volatile
   437   001436                     
   438                           ; BSR set to: 15
   439                           ;main.c: 39:     ANSELE=0;
   440   001436  0E00               	movlw	0
   441   001438  6F3C               	movwf	60,b	;volatile
   442   00143A                     
   443                           ; BSR set to: 15
   444                           ;main.c: 40:     SSP1CON1=0x00;
   445   00143A  0E00               	movlw	0
   446   00143C  6EC6               	movwf	198,c	;volatile
   447   00143E                     
   448                           ; BSR set to: 15
   449                           ;main.c: 41:     SSP2CON1=0x00;
   450   00143E  0E00               	movlw	0
   451   001440  6E6C               	movwf	108,c	;volatile
   452   001442                     
   453                           ; BSR set to: 15
   454                           ;main.c: 42:     CM1CON0=0b00000000;
   455   001442  0E00               	movlw	0
   456   001444  6E79               	movwf	121,c	;volatile
   457   001446                     
   458                           ; BSR set to: 15
   459                           ;main.c: 43:     CM2CON0=0b00000000;
   460   001446  0E00               	movlw	0
   461   001448  6E78               	movwf	120,c	;volatile
   462   00144A                     
   463                           ; BSR set to: 15
   464                           ;main.c: 44:     TRISA=0xFF;
   465   00144A  6892               	setf	146,c	;volatile
   466   00144C                     
   467                           ; BSR set to: 15
   468                           ;main.c: 45:     TRISD=0xFF;
   469   00144C  6895               	setf	149,c	;volatile
   470   00144E                     
   471                           ; BSR set to: 15
   472                           ;main.c: 46:     TRISB=0xFF;
   473   00144E  6893               	setf	147,c	;volatile
   474   001450                     
   475                           ; BSR set to: 15
   476                           ;main.c: 47:     TRISC=0xFF;
   477   001450  6894               	setf	148,c	;volatile
   478   001452                     
   479                           ; BSR set to: 15
   480                           ;main.c: 48:     CTMUCONH=0x00;
   481   001452  0E00               	movlw	0
   482   001454  6F45               	movwf	69,b	;volatile
   483   001456                     
   484                           ; BSR set to: 15
   485                           ;main.c: 49:     SRCON0=0x00;
   486   001456  0E00               	movlw	0
   487   001458  6F47               	movwf	71,b	;volatile
   488   00145A                     
   489                           ; BSR set to: 15
   490                           ;main.c: 50:     VREFCON0=0x00;
   491   00145A  0E00               	movlw	0
   492   00145C  6F42               	movwf	66,b	;volatile
   493   00145E                     
   494                           ; BSR set to: 15
   495                           ;main.c: 51:     VREFCON1=0x00;
   496   00145E  0E00               	movlw	0
   497   001460  6F41               	movwf	65,b	;volatile
   498   001462                     
   499                           ; BSR set to: 15
   500                           ;main.c: 52:     HLVDCON=0x00;
   501   001462  0E00               	movlw	0
   502   001464  6E9C               	movwf	156,c	;volatile
   503   001466                     
   504                           ; BSR set to: 15
   505                           ;main.c: 53:     _delay((unsigned long)((100)*(64000000/4000.0)));
   506   001466  0E09               	movlw	9
   507   001468  6E1E               	movwf	(??_main+1)^0,c
   508   00146A  0E1E               	movlw	30
   509   00146C  6E1D               	movwf	??_main^0,c
   510   00146E  0EE4               	movlw	228
   511   001470                     u587:
   512   001470  2EE8               	decfsz	wreg,f,c
   513   001472  D7FE               	bra	u587
   514   001474  2E1D               	decfsz	??_main^0,f,c
   515   001476  D7FC               	bra	u587
   516   001478  2E1E               	decfsz	(??_main+1)^0,f,c
   517   00147A  D7FA               	bra	u587
   518   00147C  D000               	nop2	
   519   00147E                     
   520                           ;main.c: 54:     LM629_init();
   521   00147E  EC39  F009         	call	_LM629_init	;wreg free
   522   001482                     
   523                           ;main.c: 55:     _delay((unsigned long)((100)*(64000000/4000.0)));
   524   001482  0E09               	movlw	9
   525   001484  6E1E               	movwf	(??_main+1)^0,c
   526   001486  0E1E               	movlw	30
   527   001488  6E1D               	movwf	??_main^0,c
   528   00148A  0EE4               	movlw	228
   529   00148C                     u597:
   530   00148C  2EE8               	decfsz	wreg,f,c
   531   00148E  D7FE               	bra	u597
   532   001490  2E1D               	decfsz	??_main^0,f,c
   533   001492  D7FC               	bra	u597
   534   001494  2E1E               	decfsz	(??_main+1)^0,f,c
   535   001496  D7FA               	bra	u597
   536   001498  D000               	nop2	
   537   00149A                     
   538                           ;main.c: 56:     spi_slave_init();
   539   00149A  EC09  F00C         	call	_spi_slave_init	;wreg free
   540   00149E                     
   541                           ;main.c: 57:     spi_data(dummy_data);
   542   00149E  0E55               	movlw	85
   543   0014A0  EC4E  F00C         	call	_spi_data
   544   0014A4                     
   545                           ;main.c: 58:     all_off();
   546   0014A4  EC38  F00C         	call	_all_off	;wreg free
   547   0014A8                     
   548                           ;main.c: 59:     signal_distribution_packet[1] = 16;
   549   0014A8  0E10               	movlw	16
   550   0014AA  6E29               	movwf	(_signal_distribution_packet+1)^0,c
   551   0014AC                     
   552                           ;main.c: 60:     signal_distribution_packet[2] = 16;
   553   0014AC  0E10               	movlw	16
   554   0014AE  6E2A               	movwf	(_signal_distribution_packet+2)^0,c
   555   0014B0                     
   556                           ;main.c: 61:     signal_distribution_packet[3] = 16;
   557   0014B0  0E10               	movlw	16
   558   0014B2  6E2B               	movwf	(_signal_distribution_packet+3)^0,c
   559   0014B4                     
   560                           ;main.c: 62:     signal_distribution_packet[4] = 16;
   561   0014B4  0E10               	movlw	16
   562   0014B6  6E2C               	movwf	(_signal_distribution_packet+4)^0,c
   563   0014B8                     l1745:
   564                           
   565                           ;main.c: 71:     {;main.c: 72:         classic_ctrl.lx_joystick = signal_distribution_pa
      +                          cket[1];
   566   0014B8  C029  F020         	movff	_signal_distribution_packet+1,_classic_ctrl
   567   0014BC                     
   568                           ;main.c: 73:         classic_ctrl.ly_joystick = signal_distribution_packet[2];
   569   0014BC  C02A  F021         	movff	_signal_distribution_packet+2,_classic_ctrl+1
   570   0014C0                     
   571                           ;main.c: 74:         classic_ctrl.rx_joystick = signal_distribution_packet[3];
   572   0014C0  C02B  F022         	movff	_signal_distribution_packet+3,_classic_ctrl+2
   573   0014C4                     
   574                           ;main.c: 75:         classic_ctrl.ry_joystick = signal_distribution_packet[4];
   575   0014C4  C02C  F023         	movff	_signal_distribution_packet+4,_classic_ctrl+3
   576   0014C8                     
   577                           ;main.c: 76:         signal_distribution_packet[5] = '\n';
   578   0014C8  0E0A               	movlw	10
   579   0014CA  6E2D               	movwf	(_signal_distribution_packet+5)^0,c
   580   0014CC                     
   581                           ;main.c: 78:         set_absolute_velocity(1,classic_ctrl.ly_joystick);
   582   0014CC  C021  F010         	movff	_classic_ctrl+1,set_absolute_velocity@analog_in
   583   0014D0  0E01               	movlw	1
   584   0014D2  EC74  F00A         	call	_set_absolute_velocity
   585   0014D6                     
   586                           ;main.c: 79:         set_absolute_velocity(3,classic_ctrl.ry_joystick);
   587   0014D6  C023  F010         	movff	_classic_ctrl+3,set_absolute_velocity@analog_in
   588   0014DA  0E03               	movlw	3
   589   0014DC  EC74  F00A         	call	_set_absolute_velocity
   590   0014E0  EF5C  F00A         	goto	l1745
   591   0014E4  EF70  F000         	goto	start
   592   0014E8                     __end_of_main:
   593                           	callstack 0
   594                           
   595 ;; *************** function _spi_slave_init *****************
   596 ;; Defined at:
   597 ;;		line 16 in file "spi.c"
   598 ;; Parameters:    Size  Location     Type
   599 ;;		None
   600 ;; Auto vars:     Size  Location     Type
   601 ;;		None
   602 ;; Return value:  Size  Location     Type
   603 ;;                  1    wreg      void 
   604 ;; Registers used:
   605 ;;		wreg, status,2
   606 ;; Tracked objects:
   607 ;;		On entry : 0/0
   608 ;;		On exit  : 0/0
   609 ;;		Unchanged: 0/0
   610 ;; Data sizes:     COMRAM   BANK0   BANK1   BANK2   BANK3   BANK4   BANK5   BANK6   BANK7   BANK8   BANK9  BANK10  BANK1
      +1  BANK12  BANK13  BANK14  BANK15
   611 ;;      Params:         0       0       0       0       0       0       0       0       0       0       0       0       
      +0       0       0       0       0
   612 ;;      Locals:         0       0       0       0       0       0       0       0       0       0       0       0       
      +0       0       0       0       0
   613 ;;      Temps:          0       0       0       0       0       0       0       0       0       0       0       0       
      +0       0       0       0       0
   614 ;;      Totals:         0       0       0       0       0       0       0       0       0       0       0       0       
      +0       0       0       0       0
   615 ;;Total ram usage:        0 bytes
   616 ;; Hardware stack levels used: 1
   617 ;; Hardware stack levels required when called: 1
   618 ;; This function calls:
   619 ;;		Nothing
   620 ;; This function is called by:
   621 ;;		_main
   622 ;; This function uses a non-reentrant model
   623 ;;
   624                           
   625                           	psect	text1
   626   001812                     __ptext1:
   627                           	callstack 0
   628   001812                     _spi_slave_init:
   629                           	callstack 29
   630   001812                     
   631                           ;spi.c: 18:     SSP1STATbits.SMP = 0;
   632   001812  9EC7               	bcf	199,7,c	;volatile
   633                           
   634                           ;spi.c: 19:     SSP1STATbits.CKE = 1;
   635   001814  8CC7               	bsf	199,6,c	;volatile
   636                           
   637                           ;spi.c: 20:     SSP1CON1bits.CKP = 0;
   638   001816  98C6               	bcf	198,4,c	;volatile
   639   001818                     
   640                           ;spi.c: 21:     SSP1CON1bits.SSPM = 0x04;
   641   001818  50C6               	movf	198,w,c	;volatile
   642   00181A  0BF0               	andlw	-16
   643   00181C  0904               	iorlw	4
   644   00181E  6EC6               	movwf	198,c	;volatile
   645                           
   646                           ;spi.c: 22:     SSP1CON3 = 0b00010000;
   647   001820  0E10               	movlw	16
   648   001822  6ECB               	movwf	203,c	;volatile
   649                           
   650                           ;spi.c: 23:     ADCON0 = 0x00;
   651   001824  0E00               	movlw	0
   652   001826  6EC2               	movwf	194,c	;volatile
   653                           
   654                           ;spi.c: 24:     ADCON1 = 0x00;
   655   001828  0E00               	movlw	0
   656   00182A  6EC1               	movwf	193,c	;volatile
   657   00182C                     
   658                           ;spi.c: 25:     TRISAbits.RA5 = 1;
   659   00182C  8A92               	bsf	146,5,c	;volatile
   660   00182E                     
   661                           ;spi.c: 26:     TRISCbits.RC3 = 1;
   662   00182E  8694               	bsf	148,3,c	;volatile
   663   001830                     
   664                           ;spi.c: 27:     TRISCbits.RC5 = 0;
   665   001830  9A94               	bcf	148,5,c	;volatile
   666   001832                     
   667                           ;spi.c: 28:     TRISCbits.RC4 = 1;
   668   001832  8894               	bsf	148,4,c	;volatile
   669   001834                     
   670                           ;spi.c: 29:     SSP1IE=1;
   671   001834  869D               	bsf	3997,3,c	;volatile
   672   001836                     
   673                           ;spi.c: 30:     PEIE=1;
   674   001836  8CF2               	bsf	4082,6,c	;volatile
   675   001838                     
   676                           ;spi.c: 31:     GIE=1;
   677   001838  8EF2               	bsf	4082,7,c	;volatile
   678   00183A                     
   679                           ;spi.c: 32:     SSP1CON1bits.SSPEN = 1;
   680   00183A  8AC6               	bsf	198,5,c	;volatile
   681   00183C  0012               	return		;funcret
   682   00183E                     __end_of_spi_slave_init:
   683                           	callstack 0
   684                           
   685 ;; *************** function _spi_data *****************
   686 ;; Defined at:
   687 ;;		line 35 in file "spi.c"
   688 ;; Parameters:    Size  Location     Type
   689 ;;  tx_data         1    wreg     unsigned char 
   690 ;; Auto vars:     Size  Location     Type
   691 ;;  tx_data         1    6[COMRAM] unsigned char 
   692 ;; Return value:  Size  Location     Type
   693 ;;                  1    wreg      void 
   694 ;; Registers used:
   695 ;;		wreg
   696 ;; Tracked objects:
   697 ;;		On entry : 0/0
   698 ;;		On exit  : 0/0
   699 ;;		Unchanged: 0/0
   700 ;; Data sizes:     COMRAM   BANK0   BANK1   BANK2   BANK3   BANK4   BANK5   BANK6   BANK7   BANK8   BANK9  BANK10  BANK1
      +1  BANK12  BANK13  BANK14  BANK15
   701 ;;      Params:         0       0       0       0       0       0       0       0       0       0       0       0       
      +0       0       0       0       0
   702 ;;      Locals:         1       0       0       0       0       0       0       0       0       0       0       0       
      +0       0       0       0       0
   703 ;;      Temps:          0       0       0       0       0       0       0       0       0       0       0       0       
      +0       0       0       0       0
   704 ;;      Totals:         1       0       0       0       0       0       0       0       0       0       0       0       
      +0       0       0       0       0
   705 ;;Total ram usage:        1 bytes
   706 ;; Hardware stack levels used: 1
   707 ;; Hardware stack levels required when called: 1
   708 ;; This function calls:
   709 ;;		Nothing
   710 ;; This function is called by:
   711 ;;		_main
   712 ;; This function uses a non-reentrant model
   713 ;;
   714                           
   715                           	psect	text2
   716   00189C                     __ptext2:
   717                           	callstack 0
   718   00189C                     _spi_data:
   719                           	callstack 29
   720                           
   721                           ;incstack = 0
   722                           ;spi_data@tx_data stored from wreg
   723   00189C  6E07               	movwf	spi_data@tx_data^0,c
   724   00189E                     
   725                           ;spi.c: 35: void spi_data(unsigned char tx_data);spi.c: 36: {;spi.c: 37:     SSP1BUF=tx_
      +                          data;
   726   00189E  C007  FFC9         	movff	spi_data@tx_data,4041	;volatile
   727   0018A2  0012               	return		;funcret
   728   0018A4                     __end_of_spi_data:
   729                           	callstack 0
   730                           
   731 ;; *************** function _set_absolute_velocity *****************
   732 ;; Defined at:
   733 ;;		line 460 in file "lm629.c"
   734 ;; Parameters:    Size  Location     Type
   735 ;;  motor           1    wreg     unsigned char 
   736 ;;  analog_in       1   15[COMRAM] unsigned char 
   737 ;; Auto vars:     Size  Location     Type
   738 ;;  motor           1   22[COMRAM] unsigned char 
   739 ;;  velocity_val    4   24[COMRAM] unsigned long 
   740 ;;  trajectory_c    1   23[COMRAM] unsigned char 
   741 ;;  low_word_LSB    1   21[COMRAM] unsigned char 
   742 ;;  low_word_MSB    1   20[COMRAM] unsigned char 
   743 ;;  high_word_LS    1   19[COMRAM] unsigned char 
   744 ;;  high_word_MS    1   18[COMRAM] unsigned char 
   745 ;;  trajectory_c    1    0        unsigned char 
   746 ;; Return value:  Size  Location     Type
   747 ;;                  1    wreg      void 
   748 ;; Registers used:
   749 ;;		wreg, status,2, status,0, tblptrl, tblptrh, tblptru, prodl, prodh, cstack
   750 ;; Tracked objects:
   751 ;;		On entry : 0/0
   752 ;;		On exit  : 0/0
   753 ;;		Unchanged: 0/0
   754 ;; Data sizes:     COMRAM   BANK0   BANK1   BANK2   BANK3   BANK4   BANK5   BANK6   BANK7   BANK8   BANK9  BANK10  BANK1
      +1  BANK12  BANK13  BANK14  BANK15
   755 ;;      Params:         1       0       0       0       0       0       0       0       0       0       0       0       
      +0       0       0       0       0
   756 ;;      Locals:        10       0       0       0       0       0       0       0       0       0       0       0       
      +0       0       0       0       0
   757 ;;      Temps:          2       0       0       0       0       0       0       0       0       0       0       0       
      +0       0       0       0       0
   758 ;;      Totals:        13       0       0       0       0       0       0       0       0       0       0       0       
      +0       0       0       0       0
   759 ;;Total ram usage:       13 bytes
   760 ;; Hardware stack levels used: 1
   761 ;; Hardware stack levels required when called: 5
   762 ;; This function calls:
   763 ;;		_chip_select
   764 ;;		_lm629_velocity
   765 ;;		_write_command
   766 ;;		_write_data
   767 ;; This function is called by:
   768 ;;		_main
   769 ;; This function uses a non-reentrant model
   770 ;;
   771                           
   772                           	psect	text3
   773   0014E8                     __ptext3:
   774                           	callstack 0
   775   0014E8                     _set_absolute_velocity:
   776                           	callstack 25
   777                           
   778                           ;incstack = 0
   779                           ;set_absolute_velocity@motor stored from wreg
   780   0014E8  6E17               	movwf	set_absolute_velocity@motor^0,c
   781   0014EA                     
   782                           ;lm629.c: 460: void set_absolute_velocity(uint8_t motor, uint8_t analog_in);lm629.c: 461
      +                          : {;lm629.c: 462:     uint8_t trajectory_control_MSB = 0x18;
   783   0014EA  0E18               	movlw	24
   784   0014EC  6E18               	movwf	set_absolute_velocity@trajectory_control_MSB^0,c
   785                           
   786                           ;lm629.c: 464:     uint32_t velocity_value;;lm629.c: 465:     uint8_t high_word_MSB;;lm6
      +                          29.c: 466:     uint8_t high_word_LSB;;lm629.c: 467:     uint8_t low_word_MSB;;lm629.c: 4
      +                          68:     uint8_t low_word_LSB;;lm629.c: 471:     switch(motor)
   787   0014EE  EF92  F00A         	goto	l1651
   788   0014F2                     l1637:
   789                           
   790                           ;lm629.c: 474:             {;lm629.c: 475:                 if(analog_in <= 15)
   791   0014F2  0E10               	movlw	16
   792   0014F4  6010               	cpfslt	set_absolute_velocity@analog_in^0,c
   793   0014F6  EF7F  F00A         	goto	u561
   794   0014FA  EF81  F00A         	goto	u560
   795   0014FE                     u561:
   796   0014FE  EF85  F00A         	goto	l1641
   797   001502                     u560:
   798   001502                     l1639:
   799                           
   800                           ;lm629.c: 476:                 {;lm629.c: 477:                     trajectory_control_MS
      +                          B &= 0x0F;
   801   001502  0E0F               	movlw	15
   802   001504  1618               	andwf	set_absolute_velocity@trajectory_control_MSB^0,f,c
   803                           
   804                           ;lm629.c: 478:                 }
   805   001506  EFA7  F00A         	goto	l1653
   806   00150A                     l1641:
   807                           
   808                           ;lm629.c: 480:                 {;lm629.c: 481:                     trajectory_control_MS
      +                          B |= 0x10;
   809   00150A  8818               	bsf	set_absolute_velocity@trajectory_control_MSB^0,4,c
   810   00150C  EFA7  F00A         	goto	l1653
   811   001510                     l1643:
   812                           
   813                           ;lm629.c: 486:             {;lm629.c: 487:                 if(analog_in > 15)
   814   001510  0E0F               	movlw	15
   815   001512  6410               	cpfsgt	set_absolute_velocity@analog_in^0,c
   816   001514  EF8E  F00A         	goto	u571
   817   001518  EF90  F00A         	goto	u570
   818   00151C                     u571:
   819   00151C  EF85  F00A         	goto	l1641
   820   001520                     u570:
   821   001520  EF81  F00A         	goto	l1639
   822   001524                     l1651:
   823   001524  5017               	movf	set_absolute_velocity@motor^0,w,c
   824   001526  6E11               	movwf	??_set_absolute_velocity^0,c
   825   001528  6A12               	clrf	(??_set_absolute_velocity+1)^0,c
   826                           
   827                           ; Switch on 2 bytes has been partitioned into a top level switch of size 1, and 1 sub-sw
      +                          itches
   828                           ; Switch size 1, requested type "simple"
   829                           ; Number of cases is 1, Range of values is 0 to 0
   830                           ; switch strategies available:
   831                           ; Name         Instructions Cycles
   832                           ; simple_byte            4     3 (average)
   833                           ;	Chosen strategy is simple_byte
   834   00152A  5012               	movf	(??_set_absolute_velocity+1)^0,w,c
   835   00152C  0A00               	xorlw	0	; case 0
   836   00152E  B4D8               	btfsc	status,2,c
   837   001530  EF9C  F00A         	goto	l1839
   838   001534  EFA7  F00A         	goto	l1653
   839   001538                     l1839:
   840                           
   841                           ; Switch size 1, requested type "simple"
   842                           ; Number of cases is 2, Range of values is 1 to 3
   843                           ; switch strategies available:
   844                           ; Name         Instructions Cycles
   845                           ; simple_byte            7     4 (average)
   846                           ;	Chosen strategy is simple_byte
   847   001538  5011               	movf	??_set_absolute_velocity^0,w,c
   848   00153A  0A01               	xorlw	1	; case 1
   849   00153C  B4D8               	btfsc	status,2,c
   850   00153E  EF88  F00A         	goto	l1643
   851   001542  0A02               	xorlw	2	; case 3
   852   001544  B4D8               	btfsc	status,2,c
   853   001546  EF79  F00A         	goto	l1637
   854   00154A  EFA7  F00A         	goto	l1653
   855   00154E                     l1653:
   856                           
   857                           ;lm629.c: 499:     velocity_value = lm629_velocity(analog_in);
   858   00154E  5010               	movf	set_absolute_velocity@analog_in^0,w,c
   859   001550  ECD3  F00B         	call	_lm629_velocity
   860   001554  C007  F019         	movff	?_lm629_velocity,set_absolute_velocity@velocity_value
   861   001558  C008  F01A         	movff	?_lm629_velocity+1,set_absolute_velocity@velocity_value+1
   862   00155C  C009  F01B         	movff	?_lm629_velocity+2,set_absolute_velocity@velocity_value+2
   863   001560  C00A  F01C         	movff	?_lm629_velocity+3,set_absolute_velocity@velocity_value+3
   864   001564                     
   865                           ;lm629.c: 500:     high_word_MSB = ((velocity_value & 0xFF000000) >> 24 );
   866   001564  C01C  F013         	movff	set_absolute_velocity@velocity_value+3,set_absolute_velocity@high_word_MSB
   867   001568                     
   868                           ;lm629.c: 501:     high_word_LSB = ((velocity_value & 0x00FF0000) >> 16 );
   869   001568  C01B  F014         	movff	set_absolute_velocity@velocity_value+2,set_absolute_velocity@high_word_LSB
   870   00156C                     
   871                           ;lm629.c: 502:     low_word_MSB = ((velocity_value & 0x0000FF00) >> 8 );
   872   00156C  C01A  F015         	movff	set_absolute_velocity@velocity_value+1,set_absolute_velocity@low_word_MSB
   873   001570                     
   874                           ;lm629.c: 503:     low_word_LSB = ((velocity_value & 0x000000FF) >> 0 );
   875   001570  C019  F016         	movff	set_absolute_velocity@velocity_value,set_absolute_velocity@low_word_LSB
   876   001574                     
   877                           ;lm629.c: 505:     chip_select(motor);
   878   001574  5017               	movf	set_absolute_velocity@motor^0,w,c
   879   001576  ECD6  F00A         	call	_chip_select
   880   00157A                     
   881                           ;lm629.c: 506:     write_command(0x1F);
   882   00157A  0E1F               	movlw	31
   883   00157C  EC72  F00B         	call	_write_command
   884   001580                     
   885                           ;lm629.c: 507:     write_data(trajectory_control_MSB, trajectory_control_LSB);
   886   001580  0E08               	movlw	8
   887   001582  6E0E               	movwf	write_data@LSB^0,c
   888   001584  5018               	movf	set_absolute_velocity@trajectory_control_MSB^0,w,c
   889   001586  EC1A  F00B         	call	_write_data
   890   00158A                     
   891                           ;lm629.c: 508:     write_data(high_word_MSB, high_word_LSB);
   892   00158A  C014  F00E         	movff	set_absolute_velocity@high_word_LSB,write_data@LSB
   893   00158E  5013               	movf	set_absolute_velocity@high_word_MSB^0,w,c
   894   001590  EC1A  F00B         	call	_write_data
   895   001594                     
   896                           ;lm629.c: 509:     write_data(low_word_MSB, low_word_LSB);
   897   001594  C016  F00E         	movff	set_absolute_velocity@low_word_LSB,write_data@LSB
   898   001598  5015               	movf	set_absolute_velocity@low_word_MSB^0,w,c
   899   00159A  EC1A  F00B         	call	_write_data
   900   00159E                     
   901                           ;lm629.c: 510:     write_command(0x01);
   902   00159E  0E01               	movlw	1
   903   0015A0  EC72  F00B         	call	_write_command
   904   0015A4                     
   905                           ;lm629.c: 511:     chip_select(5);
   906   0015A4  0E05               	movlw	5
   907   0015A6  ECD6  F00A         	call	_chip_select
   908   0015AA  0012               	return		;funcret
   909   0015AC                     __end_of_set_absolute_velocity:
   910                           	callstack 0
   911                           
   912 ;; *************** function _lm629_velocity *****************
   913 ;; Defined at:
   914 ;;		line 14 in file "lm629.c"
   915 ;; Parameters:    Size  Location     Type
   916 ;;  analog_value    1    wreg     unsigned char 
   917 ;; Auto vars:     Size  Location     Type
   918 ;;  analog_value    1   14[COMRAM] unsigned char 
   919 ;;  velocity        4   10[COMRAM] unsigned long 
   920 ;; Return value:  Size  Location     Type
   921 ;;                  4    6[COMRAM] unsigned long 
   922 ;; Registers used:
   923 ;;		wreg, status,2, status,0, tblptrl, tblptrh, tblptru, prodl, prodh
   924 ;; Tracked objects:
   925 ;;		On entry : 0/0
   926 ;;		On exit  : 0/0
   927 ;;		Unchanged: 0/0
   928 ;; Data sizes:     COMRAM   BANK0   BANK1   BANK2   BANK3   BANK4   BANK5   BANK6   BANK7   BANK8   BANK9  BANK10  BANK1
      +1  BANK12  BANK13  BANK14  BANK15
   929 ;;      Params:         4       0       0       0       0       0       0       0       0       0       0       0       
      +0       0       0       0       0
   930 ;;      Locals:         5       0       0       0       0       0       0       0       0       0       0       0       
      +0       0       0       0       0
   931 ;;      Temps:          0       0       0       0       0       0       0       0       0       0       0       0       
      +0       0       0       0       0
   932 ;;      Totals:         9       0       0       0       0       0       0       0       0       0       0       0       
      +0       0       0       0       0
   933 ;;Total ram usage:        9 bytes
   934 ;; Hardware stack levels used: 1
   935 ;; Hardware stack levels required when called: 1
   936 ;; This function calls:
   937 ;;		Nothing
   938 ;; This function is called by:
   939 ;;		_set_absolute_velocity
   940 ;; This function uses a non-reentrant model
   941 ;;
   942                           
   943                           	psect	text4
   944   0017A6                     __ptext4:
   945                           	callstack 0
   946   0017A6                     _lm629_velocity:
   947                           	callstack 28
   948                           
   949                           ;incstack = 0
   950                           ;lm629_velocity@analog_value stored from wreg
   951   0017A6  6E0F               	movwf	lm629_velocity@analog_value^0,c
   952   0017A8                     
   953                           ;lm629.c: 14: uint32_t lm629_velocity(uint8_t analog_value);lm629.c: 15: {;lm629.c: 16: 
      +                              uint32_t velocity;;lm629.c: 17:     static const uint32_t lookup_table[32] =;lm629.c
      +                          : 25:     velocity = lookup_table[analog_value];
   954   0017A8  500F               	movf	lm629_velocity@analog_value^0,w,c
   955   0017AA  0D04               	mullw	4
   956   0017AC  0E01               	movlw	low lm629_velocity@lookup_table
   957   0017AE  24F3               	addwf	243,w,c
   958   0017B0  6EF6               	movwf	tblptrl,c
   959   0017B2  0E10               	movlw	high lm629_velocity@lookup_table
   960   0017B4  20F4               	addwfc	244,w,c
   961   0017B6  6EF7               	movwf	tblptrh,c
   962   0017B8                     	if	0	;There are less than 3 active tblptr bytes
   963   0017B8                     	endif
   964   0017B8  0009               	tblrd		*+
   965   0017BA  CFF5 F00B          	movff	tablat,lm629_velocity@velocity
   966   0017BE  0009               	tblrd		*+
   967   0017C0  CFF5 F00C          	movff	tablat,lm629_velocity@velocity+1
   968   0017C4  0009               	tblrd		*+
   969   0017C6  CFF5 F00D          	movff	tablat,lm629_velocity@velocity+2
   970   0017CA  000A               	tblrd		*-
   971   0017CC  CFF5 F00E          	movff	tablat,lm629_velocity@velocity+3
   972   0017D0                     
   973                           ;lm629.c: 26:     return velocity;
   974   0017D0  C00B  F007         	movff	lm629_velocity@velocity,?_lm629_velocity
   975   0017D4  C00C  F008         	movff	lm629_velocity@velocity+1,?_lm629_velocity+1
   976   0017D8  C00D  F009         	movff	lm629_velocity@velocity+2,?_lm629_velocity+2
   977   0017DC  C00E  F00A         	movff	lm629_velocity@velocity+3,?_lm629_velocity+3
   978   0017E0  0012               	return		;funcret
   979   0017E2                     __end_of_lm629_velocity:
   980                           	callstack 0
   981                           
   982 ;; *************** function _all_off *****************
   983 ;; Defined at:
   984 ;;		line 388 in file "lm629.c"
   985 ;; Parameters:    Size  Location     Type
   986 ;;		None
   987 ;; Auto vars:     Size  Location     Type
   988 ;;		None
   989 ;; Return value:  Size  Location     Type
   990 ;;                  1    wreg      void 
   991 ;; Registers used:
   992 ;;		wreg, status,2, status,0, cstack
   993 ;; Tracked objects:
   994 ;;		On entry : 0/0
   995 ;;		On exit  : 0/0
   996 ;;		Unchanged: 0/0
   997 ;; Data sizes:     COMRAM   BANK0   BANK1   BANK2   BANK3   BANK4   BANK5   BANK6   BANK7   BANK8   BANK9  BANK10  BANK1
      +1  BANK12  BANK13  BANK14  BANK15
   998 ;;      Params:         0       0       0       0       0       0       0       0       0       0       0       0       
      +0       0       0       0       0
   999 ;;      Locals:         0       0       0       0       0       0       0       0       0       0       0       0       
      +0       0       0       0       0
  1000 ;;      Temps:          0       0       0       0       0       0       0       0       0       0       0       0       
      +0       0       0       0       0
  1001 ;;      Totals:         0       0       0       0       0       0       0       0       0       0       0       0       
      +0       0       0       0       0
  1002 ;;Total ram usage:        0 bytes
  1003 ;; Hardware stack levels used: 1
  1004 ;; Hardware stack levels required when called: 6
  1005 ;; This function calls:
  1006 ;;		_chip_select
  1007 ;;		_motor_off
  1008 ;; This function is called by:
  1009 ;;		_main
  1010 ;; This function uses a non-reentrant model
  1011 ;;
  1012                           
  1013                           	psect	text5
  1014   001870                     __ptext5:
  1015                           	callstack 0
  1016   001870                     _all_off:
  1017                           	callstack 24
  1018   001870                     
  1019                           ;lm629.c: 392:     chip_select(1);
  1020   001870  0E01               	movlw	1
  1021   001872  ECD6  F00A         	call	_chip_select
  1022                           
  1023                           ;lm629.c: 393:     motor_off();
  1024   001876  EC2C  F00C         	call	_motor_off	;wreg free
  1025                           
  1026                           ;lm629.c: 396:     chip_select(3);
  1027   00187A  0E03               	movlw	3
  1028   00187C  ECD6  F00A         	call	_chip_select
  1029                           
  1030                           ;lm629.c: 397:     motor_off();
  1031   001880  EC2C  F00C         	call	_motor_off	;wreg free
  1032   001884  0012               	return		;funcret
  1033   001886                     __end_of_all_off:
  1034                           	callstack 0
  1035                           
  1036 ;; *************** function _motor_off *****************
  1037 ;; Defined at:
  1038 ;;		line 362 in file "lm629.c"
  1039 ;; Parameters:    Size  Location     Type
  1040 ;;		None
  1041 ;; Auto vars:     Size  Location     Type
  1042 ;;		None
  1043 ;; Return value:  Size  Location     Type
  1044 ;;                  1    wreg      void 
  1045 ;; Registers used:
  1046 ;;		wreg, status,2, status,0, cstack
  1047 ;; Tracked objects:
  1048 ;;		On entry : 0/0
  1049 ;;		On exit  : 0/0
  1050 ;;		Unchanged: 0/0
  1051 ;; Data sizes:     COMRAM   BANK0   BANK1   BANK2   BANK3   BANK4   BANK5   BANK6   BANK7   BANK8   BANK9  BANK10  BANK1
      +1  BANK12  BANK13  BANK14  BANK15
  1052 ;;      Params:         0       0       0       0       0       0       0       0       0       0       0       0       
      +0       0       0       0       0
  1053 ;;      Locals:         0       0       0       0       0       0       0       0       0       0       0       0       
      +0       0       0       0       0
  1054 ;;      Temps:          0       0       0       0       0       0       0       0       0       0       0       0       
      +0       0       0       0       0
  1055 ;;      Totals:         0       0       0       0       0       0       0       0       0       0       0       0       
      +0       0       0       0       0
  1056 ;;Total ram usage:        0 bytes
  1057 ;; Hardware stack levels used: 1
  1058 ;; Hardware stack levels required when called: 5
  1059 ;; This function calls:
  1060 ;;		_write_command
  1061 ;;		_write_data
  1062 ;; This function is called by:
  1063 ;;		_all_off
  1064 ;; This function uses a non-reentrant model
  1065 ;;
  1066                           
  1067                           	psect	text6
  1068   001858                     __ptext6:
  1069                           	callstack 0
  1070   001858                     _motor_off:
  1071                           	callstack 24
  1072   001858                     
  1073                           ;lm629.c: 364:     write_command(0x1F);
  1074   001858  0E1F               	movlw	31
  1075   00185A  EC72  F00B         	call	_write_command
  1076                           
  1077                           ;lm629.c: 365:     write_data(0x01,0x00);
  1078   00185E  0E00               	movlw	0
  1079   001860  6E0E               	movwf	write_data@LSB^0,c
  1080   001862  0E01               	movlw	1
  1081   001864  EC1A  F00B         	call	_write_data
  1082                           
  1083                           ;lm629.c: 366:     write_command(0x01);
  1084   001868  0E01               	movlw	1
  1085   00186A  EC72  F00B         	call	_write_command
  1086   00186E  0012               	return		;funcret
  1087   001870                     __end_of_motor_off:
  1088                           	callstack 0
  1089                           
  1090 ;; *************** function _LM629_init *****************
  1091 ;; Defined at:
  1092 ;;		line 135 in file "lm629.c"
  1093 ;; Parameters:    Size  Location     Type
  1094 ;;		None
  1095 ;; Auto vars:     Size  Location     Type
  1096 ;;  x               1   26[COMRAM] unsigned char 
  1097 ;; Return value:  Size  Location     Type
  1098 ;;                  1    wreg      void 
  1099 ;; Registers used:
  1100 ;;		wreg, status,2, status,0, cstack
  1101 ;; Tracked objects:
  1102 ;;		On entry : 0/0
  1103 ;;		On exit  : 0/0
  1104 ;;		Unchanged: 0/0
  1105 ;; Data sizes:     COMRAM   BANK0   BANK1   BANK2   BANK3   BANK4   BANK5   BANK6   BANK7   BANK8   BANK9  BANK10  BANK1
      +1  BANK12  BANK13  BANK14  BANK15
  1106 ;;      Params:         0       0       0       0       0       0       0       0       0       0       0       0       
      +0       0       0       0       0
  1107 ;;      Locals:         1       0       0       0       0       0       0       0       0       0       0       0       
      +0       0       0       0       0
  1108 ;;      Temps:          1       0       0       0       0       0       0       0       0       0       0       0       
      +0       0       0       0       0
  1109 ;;      Totals:         2       0       0       0       0       0       0       0       0       0       0       0       
      +0       0       0       0       0
  1110 ;;Total ram usage:        2 bytes
  1111 ;; Hardware stack levels used: 1
  1112 ;; Hardware stack levels required when called: 6
  1113 ;; This function calls:
  1114 ;;		_check_busy
  1115 ;;		_chip_select
  1116 ;;		_filter_module
  1117 ;;		_read_status
  1118 ;;		_set_absolute_acceleration
  1119 ;;		_write_command
  1120 ;;		_write_data
  1121 ;; This function is called by:
  1122 ;;		_main
  1123 ;; This function uses a non-reentrant model
  1124 ;;
  1125                           
  1126                           	psect	text7
  1127   001272                     __ptext7:
  1128                           	callstack 0
  1129   001272                     _LM629_init:
  1130                           	callstack 24
  1131   001272                     
  1132                           ;lm629.c: 139:     TRISDbits.TRISD2 = 0;
  1133   001272  9495               	bcf	149,2,c	;volatile
  1134   001274                     
  1135                           ;lm629.c: 140:     TRISCbits.TRISC2 = 0;
  1136   001274  9494               	bcf	148,2,c	;volatile
  1137   001276                     
  1138                           ;lm629.c: 141:     TRISDbits.TRISD1 = 0;
  1139   001276  9295               	bcf	149,1,c	;volatile
  1140   001278                     
  1141                           ;lm629.c: 142:     TRISBbits.TRISB5= 0;
  1142   001278  9A93               	bcf	147,5,c	;volatile
  1143   00127A                     
  1144                           ;lm629.c: 143:     TRISDbits.TRISD3 = 0;
  1145   00127A  9695               	bcf	149,3,c	;volatile
  1146   00127C                     
  1147                           ;lm629.c: 144:     TRISBbits.TRISB2 = 0;
  1148   00127C  9493               	bcf	147,2,c	;volatile
  1149   00127E                     
  1150                           ;lm629.c: 145:     TRISAbits.TRISA0 = 0;
  1151   00127E  9092               	bcf	146,0,c	;volatile
  1152   001280                     
  1153                           ;lm629.c: 146:     TRISBbits.TRISB4 = 0;
  1154   001280  9893               	bcf	147,4,c	;volatile
  1155   001282                     
  1156                           ;lm629.c: 147:  PORTCbits.RC2=1;
  1157   001282  8482               	bsf	130,2,c	;volatile
  1158   001284                     
  1159                           ;lm629.c: 148:  PORTDbits.RD2=1;
  1160   001284  8483               	bsf	131,2,c	;volatile
  1161   001286                     
  1162                           ;lm629.c: 149:  PORTDbits.RD1=1;
  1163   001286  8283               	bsf	131,1,c	;volatile
  1164   001288                     
  1165                           ;lm629.c: 150:  PORTBbits.RB5=1;
  1166   001288  8A81               	bsf	129,5,c	;volatile
  1167   00128A                     
  1168                           ;lm629.c: 177:  chip_select(1);
  1169   00128A  0E01               	movlw	1
  1170   00128C  ECD6  F00A         	call	_chip_select
  1171   001290                     l1573:
  1172                           
  1173                           ;lm629.c: 179:  _delay((unsigned long)((10)*(64000000/4000000.0)));
  1174   001290  0E35               	movlw	53
  1175   001292                     u607:
  1176   001292  2EE8               	decfsz	wreg,f,c
  1177   001294  D7FE               	bra	u607
  1178   001296  F000               	nop	
  1179   001298                     
  1180                           ;lm629.c: 180:  PORTBbits.RB5=0;
  1181   001298  9A81               	bcf	129,5,c	;volatile
  1182   00129A                     
  1183                           ;lm629.c: 181:  _delay((unsigned long)((2)*(64000000/4000.0)));
  1184   00129A  0E2A               	movlw	42
  1185   00129C  6E1A               	movwf	??_LM629_init^0,c
  1186   00129E  0E8E               	movlw	142
  1187   0012A0                     u617:
  1188   0012A0  2EE8               	decfsz	wreg,f,c
  1189   0012A2  D7FE               	bra	u617
  1190   0012A4  2E1A               	decfsz	??_LM629_init^0,f,c
  1191   0012A6  D7FC               	bra	u617
  1192   0012A8                     
  1193                           ;lm629.c: 182:  PORTBbits.RB5=1;
  1194   0012A8  8A81               	bsf	129,5,c	;volatile
  1195   0012AA                     
  1196                           ;lm629.c: 183:  _delay((unsigned long)((2)*(64000000/4000.0)));
  1197   0012AA  0E2A               	movlw	42
  1198   0012AC  6E1A               	movwf	??_LM629_init^0,c
  1199   0012AE  0E8E               	movlw	142
  1200   0012B0                     u627:
  1201   0012B0  2EE8               	decfsz	wreg,f,c
  1202   0012B2  D7FE               	bra	u627
  1203   0012B4  2E1A               	decfsz	??_LM629_init^0,f,c
  1204   0012B6  D7FC               	bra	u627
  1205   0012B8                     
  1206                           ;lm629.c: 184:  x=read_status();
  1207   0012B8  ECF1  F00B         	call	_read_status	;wreg free
  1208   0012BC  6E1B               	movwf	LM629_init@x^0,c
  1209   0012BE                     
  1210                           ;lm629.c: 185:  if(!(x==0xC4 || x==0x84))
  1211   0012BE  0EC4               	movlw	196
  1212   0012C0  181B               	xorwf	LM629_init@x^0,w,c
  1213   0012C2  B4D8               	btfsc	status,2,c
  1214   0012C4  EF66  F009         	goto	u481
  1215   0012C8  EF68  F009         	goto	u480
  1216   0012CC                     u481:
  1217   0012CC  EF73  F009         	goto	l1593
  1218   0012D0                     u480:
  1219   0012D0  0E84               	movlw	132
  1220   0012D2  181B               	xorwf	LM629_init@x^0,w,c
  1221   0012D4  B4D8               	btfsc	status,2,c
  1222   0012D6  EF6F  F009         	goto	u491
  1223   0012DA  EF71  F009         	goto	u490
  1224   0012DE                     u491:
  1225   0012DE  EF73  F009         	goto	l1593
  1226   0012E2                     u490:
  1227   0012E2  EF48  F009         	goto	l1573
  1228   0012E6                     l1593:
  1229                           
  1230                           ;lm629.c: 190:   {;lm629.c: 191:    check_busy();
  1231   0012E6  EC43  F00C         	call	_check_busy	;wreg free
  1232                           
  1233                           ;lm629.c: 192:    write_command(0x1D);
  1234   0012EA  0E1D               	movlw	29
  1235   0012EC  EC72  F00B         	call	_write_command
  1236                           
  1237                           ;lm629.c: 193:          check_busy();
  1238   0012F0  EC43  F00C         	call	_check_busy	;wreg free
  1239                           
  1240                           ;lm629.c: 194:    write_data(0x00,0x00);
  1241   0012F4  0E00               	movlw	0
  1242   0012F6  6E0E               	movwf	write_data@LSB^0,c
  1243   0012F8  0E00               	movlw	0
  1244   0012FA  EC1A  F00B         	call	_write_data
  1245                           
  1246                           ;lm629.c: 195:    check_busy();
  1247   0012FE  EC43  F00C         	call	_check_busy	;wreg free
  1248                           
  1249                           ;lm629.c: 196:    x=read_status();
  1250   001302  ECF1  F00B         	call	_read_status	;wreg free
  1251   001306  6E1B               	movwf	LM629_init@x^0,c
  1252   001308                     
  1253                           ;lm629.c: 197:             if(!(x==0xC0 || x==0x80))
  1254   001308  0EC0               	movlw	192
  1255   00130A  181B               	xorwf	LM629_init@x^0,w,c
  1256   00130C  B4D8               	btfsc	status,2,c
  1257   00130E  EF8B  F009         	goto	u501
  1258   001312  EF8D  F009         	goto	u500
  1259   001316                     u501:
  1260   001316  EF98  F009         	goto	l1601
  1261   00131A                     u500:
  1262   00131A  0E80               	movlw	128
  1263   00131C  181B               	xorwf	LM629_init@x^0,w,c
  1264   00131E  B4D8               	btfsc	status,2,c
  1265   001320  EF94  F009         	goto	u511
  1266   001324  EF96  F009         	goto	u510
  1267   001328                     u511:
  1268   001328  EF98  F009         	goto	l1601
  1269   00132C                     u510:
  1270   00132C  EF48  F009         	goto	l1573
  1271   001330                     l1601:
  1272                           
  1273                           ;lm629.c: 229:  chip_select(3);
  1274   001330  0E03               	movlw	3
  1275   001332  ECD6  F00A         	call	_chip_select
  1276   001336                     l1603:
  1277                           
  1278                           ;lm629.c: 231:  _delay((unsigned long)((10)*(64000000/4000000.0)));
  1279   001336  0E35               	movlw	53
  1280   001338                     u637:
  1281   001338  2EE8               	decfsz	wreg,f,c
  1282   00133A  D7FE               	bra	u637
  1283   00133C  F000               	nop	
  1284   00133E                     
  1285                           ;lm629.c: 232:  PORTBbits.RB5=0;
  1286   00133E  9A81               	bcf	129,5,c	;volatile
  1287   001340                     
  1288                           ;lm629.c: 233:  _delay((unsigned long)((1)*(64000000/4000.0)));
  1289   001340  0E15               	movlw	21
  1290   001342  6E1A               	movwf	??_LM629_init^0,c
  1291   001344  0EC6               	movlw	198
  1292   001346                     u647:
  1293   001346  2EE8               	decfsz	wreg,f,c
  1294   001348  D7FE               	bra	u647
  1295   00134A  2E1A               	decfsz	??_LM629_init^0,f,c
  1296   00134C  D7FC               	bra	u647
  1297   00134E  D000               	nop2	
  1298   001350                     
  1299                           ;lm629.c: 234:  PORTBbits.RB5=1;
  1300   001350  8A81               	bsf	129,5,c	;volatile
  1301   001352                     
  1302                           ;lm629.c: 235:  _delay((unsigned long)((2)*(64000000/4000.0)));
  1303   001352  0E2A               	movlw	42
  1304   001354  6E1A               	movwf	??_LM629_init^0,c
  1305   001356  0E8E               	movlw	142
  1306   001358                     u657:
  1307   001358  2EE8               	decfsz	wreg,f,c
  1308   00135A  D7FE               	bra	u657
  1309   00135C  2E1A               	decfsz	??_LM629_init^0,f,c
  1310   00135E  D7FC               	bra	u657
  1311   001360                     
  1312                           ;lm629.c: 236:  x=read_status();
  1313   001360  ECF1  F00B         	call	_read_status	;wreg free
  1314   001364  6E1B               	movwf	LM629_init@x^0,c
  1315   001366                     
  1316                           ;lm629.c: 237:  if(!(x==0xC4 || x==0x84))
  1317   001366  0EC4               	movlw	196
  1318   001368  181B               	xorwf	LM629_init@x^0,w,c
  1319   00136A  B4D8               	btfsc	status,2,c
  1320   00136C  EFBA  F009         	goto	u521
  1321   001370  EFBC  F009         	goto	u520
  1322   001374                     u521:
  1323   001374  EFC7  F009         	goto	l1623
  1324   001378                     u520:
  1325   001378  0E84               	movlw	132
  1326   00137A  181B               	xorwf	LM629_init@x^0,w,c
  1327   00137C  B4D8               	btfsc	status,2,c
  1328   00137E  EFC3  F009         	goto	u531
  1329   001382  EFC5  F009         	goto	u530
  1330   001386                     u531:
  1331   001386  EFC7  F009         	goto	l1623
  1332   00138A                     u530:
  1333   00138A  EF9B  F009         	goto	l1603
  1334   00138E                     l1623:
  1335                           
  1336                           ;lm629.c: 242:   {;lm629.c: 243:    check_busy();
  1337   00138E  EC43  F00C         	call	_check_busy	;wreg free
  1338                           
  1339                           ;lm629.c: 244:    write_command(0x1D);
  1340   001392  0E1D               	movlw	29
  1341   001394  EC72  F00B         	call	_write_command
  1342                           
  1343                           ;lm629.c: 245:          check_busy();
  1344   001398  EC43  F00C         	call	_check_busy	;wreg free
  1345                           
  1346                           ;lm629.c: 246:    write_data(0x00,0x00);
  1347   00139C  0E00               	movlw	0
  1348   00139E  6E0E               	movwf	write_data@LSB^0,c
  1349   0013A0  0E00               	movlw	0
  1350   0013A2  EC1A  F00B         	call	_write_data
  1351                           
  1352                           ;lm629.c: 247:    check_busy();
  1353   0013A6  EC43  F00C         	call	_check_busy	;wreg free
  1354                           
  1355                           ;lm629.c: 248:    x=read_status();
  1356   0013AA  ECF1  F00B         	call	_read_status	;wreg free
  1357   0013AE  6E1B               	movwf	LM629_init@x^0,c
  1358   0013B0                     
  1359                           ;lm629.c: 249:             if(!(x==0xC0 || x==0x80))
  1360   0013B0  0EC0               	movlw	192
  1361   0013B2  181B               	xorwf	LM629_init@x^0,w,c
  1362   0013B4  B4D8               	btfsc	status,2,c
  1363   0013B6  EFDF  F009         	goto	u541
  1364   0013BA  EFE1  F009         	goto	u540
  1365   0013BE                     u541:
  1366   0013BE  EFEC  F009         	goto	l1631
  1367   0013C2                     u540:
  1368   0013C2  0E80               	movlw	128
  1369   0013C4  181B               	xorwf	LM629_init@x^0,w,c
  1370   0013C6  B4D8               	btfsc	status,2,c
  1371   0013C8  EFE8  F009         	goto	u551
  1372   0013CC  EFEA  F009         	goto	u550
  1373   0013D0                     u551:
  1374   0013D0  EFEC  F009         	goto	l1631
  1375   0013D4                     u550:
  1376   0013D4  EF9B  F009         	goto	l1603
  1377   0013D8                     l1631:
  1378                           
  1379                           ;lm629.c: 256: chip_select(1);
  1380   0013D8  0E01               	movlw	1
  1381   0013DA  ECD6  F00A         	call	_chip_select
  1382                           
  1383                           ;lm629.c: 257: filter_module();
  1384   0013DE  EC93  F00B         	call	_filter_module	;wreg free
  1385                           
  1386                           ;lm629.c: 260: chip_select(3);
  1387   0013E2  0E03               	movlw	3
  1388   0013E4  ECD6  F00A         	call	_chip_select
  1389                           
  1390                           ;lm629.c: 261: filter_module();
  1391   0013E8  EC93  F00B         	call	_filter_module	;wreg free
  1392                           
  1393                           ;lm629.c: 262: set_absolute_acceleration(1,0x00000250);
  1394   0013EC  0E50               	movlw	80
  1395   0013EE  6E10               	movwf	set_absolute_acceleration@acceleration_value^0,c
  1396   0013F0  0E02               	movlw	2
  1397   0013F2  6E11               	movwf	(set_absolute_acceleration@acceleration_value+1)^0,c
  1398   0013F4  0E00               	movlw	0
  1399   0013F6  6E12               	movwf	(set_absolute_acceleration@acceleration_value+2)^0,c
  1400   0013F8  0E00               	movlw	0
  1401   0013FA  6E13               	movwf	(set_absolute_acceleration@acceleration_value+3)^0,c
  1402   0013FC  0E01               	movlw	1
  1403   0013FE  EC4B  F00B         	call	_set_absolute_acceleration
  1404                           
  1405                           ;lm629.c: 263: set_absolute_acceleration(3,0x00000250);
  1406   001402  0E50               	movlw	80
  1407   001404  6E10               	movwf	set_absolute_acceleration@acceleration_value^0,c
  1408   001406  0E02               	movlw	2
  1409   001408  6E11               	movwf	(set_absolute_acceleration@acceleration_value+1)^0,c
  1410   00140A  0E00               	movlw	0
  1411   00140C  6E12               	movwf	(set_absolute_acceleration@acceleration_value+2)^0,c
  1412   00140E  0E00               	movlw	0
  1413   001410  6E13               	movwf	(set_absolute_acceleration@acceleration_value+3)^0,c
  1414   001412  0E03               	movlw	3
  1415   001414  EC4B  F00B         	call	_set_absolute_acceleration
  1416   001418  0012               	return		;funcret
  1417   00141A                     __end_of_LM629_init:
  1418                           	callstack 0
  1419                           
  1420 ;; *************** function _set_absolute_acceleration *****************
  1421 ;; Defined at:
  1422 ;;		line 438 in file "lm629.c"
  1423 ;; Parameters:    Size  Location     Type
  1424 ;;  motor           1    wreg     unsigned char 
  1425 ;;  acceleration    4   15[COMRAM] unsigned long 
  1426 ;; Auto vars:     Size  Location     Type
  1427 ;;  motor           1   19[COMRAM] unsigned char 
  1428 ;;  low_word_LSB    1   24[COMRAM] unsigned char 
  1429 ;;  low_word_MSB    1   23[COMRAM] unsigned char 
  1430 ;;  high_word_LS    1   22[COMRAM] unsigned char 
  1431 ;;  high_word_MS    1   21[COMRAM] unsigned char 
  1432 ;;  trajectory_c    1   20[COMRAM] unsigned char 
  1433 ;;  trajectory_c    1    0        unsigned char 
  1434 ;; Return value:  Size  Location     Type
  1435 ;;                  1    wreg      void 
  1436 ;; Registers used:
  1437 ;;		wreg, status,2, status,0, cstack
  1438 ;; Tracked objects:
  1439 ;;		On entry : 0/0
  1440 ;;		On exit  : 0/0
  1441 ;;		Unchanged: 0/0
  1442 ;; Data sizes:     COMRAM   BANK0   BANK1   BANK2   BANK3   BANK4   BANK5   BANK6   BANK7   BANK8   BANK9  BANK10  BANK1
      +1  BANK12  BANK13  BANK14  BANK15
  1443 ;;      Params:         4       0       0       0       0       0       0       0       0       0       0       0       
      +0       0       0       0       0
  1444 ;;      Locals:         6       0       0       0       0       0       0       0       0       0       0       0       
      +0       0       0       0       0
  1445 ;;      Temps:          0       0       0       0       0       0       0       0       0       0       0       0       
      +0       0       0       0       0
  1446 ;;      Totals:        10       0       0       0       0       0       0       0       0       0       0       0       
      +0       0       0       0       0
  1447 ;;Total ram usage:       10 bytes
  1448 ;; Hardware stack levels used: 1
  1449 ;; Hardware stack levels required when called: 5
  1450 ;; This function calls:
  1451 ;;		_chip_select
  1452 ;;		_write_command
  1453 ;;		_write_data
  1454 ;; This function is called by:
  1455 ;;		_LM629_init
  1456 ;; This function uses a non-reentrant model
  1457 ;;
  1458                           
  1459                           	psect	text8
  1460   001696                     __ptext8:
  1461                           	callstack 0
  1462   001696                     _set_absolute_acceleration:
  1463                           	callstack 24
  1464                           
  1465                           ;incstack = 0
  1466                           ;set_absolute_acceleration@motor stored from wreg
  1467   001696  6E14               	movwf	set_absolute_acceleration@motor^0,c
  1468   001698                     
  1469                           ;lm629.c: 441:     uint8_t trajectory_control_LSB = 0x20;
  1470   001698  0E20               	movlw	32
  1471   00169A  6E15               	movwf	set_absolute_acceleration@trajectory_control_LSB^0,c
  1472   00169C                     
  1473                           ;lm629.c: 442:     uint8_t high_word_MSB;;lm629.c: 443:     uint8_t high_word_LSB;;lm629
      +                          .c: 444:     uint8_t low_word_MSB;;lm629.c: 445:     uint8_t low_word_LSB;;lm629.c: 446:
      +                               high_word_MSB = ((acceleration_value & 0xFF000000) >> 24 );
  1474   00169C  C013  F016         	movff	set_absolute_acceleration@acceleration_value+3,set_absolute_acceleration@high_wor
      +                          d_MSB
  1475   0016A0                     
  1476                           ;lm629.c: 447:     high_word_LSB = ((acceleration_value & 0x00FF0000) >> 16 );
  1477   0016A0  C012  F017         	movff	set_absolute_acceleration@acceleration_value+2,set_absolute_acceleration@high_wor
      +                          d_LSB
  1478   0016A4                     
  1479                           ;lm629.c: 448:     low_word_MSB = ((acceleration_value & 0x0000FF00) >> 8 );
  1480   0016A4  C011  F018         	movff	set_absolute_acceleration@acceleration_value+1,set_absolute_acceleration@low_word
      +                          _MSB
  1481   0016A8                     
  1482                           ;lm629.c: 449:     low_word_LSB = ((acceleration_value & 0x000000FF) >> 0 );
  1483   0016A8  C010  F019         	movff	set_absolute_acceleration@acceleration_value,set_absolute_acceleration@low_word_L
      +                          SB
  1484   0016AC                     
  1485                           ;lm629.c: 451:     chip_select(motor);
  1486   0016AC  5014               	movf	set_absolute_acceleration@motor^0,w,c
  1487   0016AE  ECD6  F00A         	call	_chip_select
  1488   0016B2                     
  1489                           ;lm629.c: 452:     write_command(0x1F);
  1490   0016B2  0E1F               	movlw	31
  1491   0016B4  EC72  F00B         	call	_write_command
  1492   0016B8                     
  1493                           ;lm629.c: 453:     write_data(trajectory_control_MSB,trajectory_control_LSB);
  1494   0016B8  0E20               	movlw	32
  1495   0016BA  6E0E               	movwf	write_data@LSB^0,c
  1496   0016BC  0E00               	movlw	0
  1497   0016BE  EC1A  F00B         	call	_write_data
  1498   0016C2                     
  1499                           ;lm629.c: 454:     write_data(high_word_MSB, high_word_LSB);
  1500   0016C2  C017  F00E         	movff	set_absolute_acceleration@high_word_LSB,write_data@LSB
  1501   0016C6  5016               	movf	set_absolute_acceleration@high_word_MSB^0,w,c
  1502   0016C8  EC1A  F00B         	call	_write_data
  1503   0016CC                     
  1504                           ;lm629.c: 455:     write_data(low_word_MSB, low_word_LSB);
  1505   0016CC  C019  F00E         	movff	set_absolute_acceleration@low_word_LSB,write_data@LSB
  1506   0016D0  5018               	movf	set_absolute_acceleration@low_word_MSB^0,w,c
  1507   0016D2  EC1A  F00B         	call	_write_data
  1508   0016D6                     
  1509                           ;lm629.c: 456:     write_command(0x01);
  1510   0016D6  0E01               	movlw	1
  1511   0016D8  EC72  F00B         	call	_write_command
  1512   0016DC                     
  1513                           ;lm629.c: 457:     chip_select(5);
  1514   0016DC  0E05               	movlw	5
  1515   0016DE  ECD6  F00A         	call	_chip_select
  1516   0016E2  0012               	return		;funcret
  1517   0016E4                     __end_of_set_absolute_acceleration:
  1518                           	callstack 0
  1519                           
  1520 ;; *************** function _chip_select *****************
  1521 ;; Defined at:
  1522 ;;		line 321 in file "lm629.c"
  1523 ;; Parameters:    Size  Location     Type
  1524 ;;  chip            1    wreg     unsigned char 
  1525 ;; Auto vars:     Size  Location     Type
  1526 ;;  chip            1    6[COMRAM] unsigned char 
  1527 ;; Return value:  Size  Location     Type
  1528 ;;                  1    wreg      void 
  1529 ;; Registers used:
  1530 ;;		wreg, status,2, status,0
  1531 ;; Tracked objects:
  1532 ;;		On entry : 0/0
  1533 ;;		On exit  : 0/0
  1534 ;;		Unchanged: 0/0
  1535 ;; Data sizes:     COMRAM   BANK0   BANK1   BANK2   BANK3   BANK4   BANK5   BANK6   BANK7   BANK8   BANK9  BANK10  BANK1
      +1  BANK12  BANK13  BANK14  BANK15
  1536 ;;      Params:         0       0       0       0       0       0       0       0       0       0       0       0       
      +0       0       0       0       0
  1537 ;;      Locals:         1       0       0       0       0       0       0       0       0       0       0       0       
      +0       0       0       0       0
  1538 ;;      Temps:          0       0       0       0       0       0       0       0       0       0       0       0       
      +0       0       0       0       0
  1539 ;;      Totals:         1       0       0       0       0       0       0       0       0       0       0       0       
      +0       0       0       0       0
  1540 ;;Total ram usage:        1 bytes
  1541 ;; Hardware stack levels used: 1
  1542 ;; Hardware stack levels required when called: 1
  1543 ;; This function calls:
  1544 ;;		Nothing
  1545 ;; This function is called by:
  1546 ;;		_LM629_init
  1547 ;;		_all_off
  1548 ;;		_set_absolute_acceleration
  1549 ;;		_set_absolute_velocity
  1550 ;;		_all_break
  1551 ;; This function uses a non-reentrant model
  1552 ;;
  1553                           
  1554                           	psect	text9
  1555   0015AC                     __ptext9:
  1556                           	callstack 0
  1557   0015AC                     _chip_select:
  1558                           	callstack 28
  1559                           
  1560                           ;incstack = 0
  1561                           ;chip_select@chip stored from wreg
  1562   0015AC  6E07               	movwf	chip_select@chip^0,c
  1563   0015AE                     
  1564                           ;lm629.c: 321: void chip_select(unsigned char chip);lm629.c: 322: {;lm629.c: 323:  if(ch
      +                          ip==0)
  1565   0015AE  5007               	movf	chip_select@chip^0,w,c
  1566   0015B0  A4D8               	btfss	status,2,c
  1567   0015B2  EFDD  F00A         	goto	u171
  1568   0015B6  EFDF  F00A         	goto	u170
  1569   0015BA                     u171:
  1570   0015BA  EFE5  F00A         	goto	l1025
  1571   0015BE                     u170:
  1572   0015BE                     
  1573                           ;lm629.c: 324:  {;lm629.c: 325:   PORTDbits.RD3=0;
  1574   0015BE  9683               	bcf	131,3,c	;volatile
  1575                           
  1576                           ;lm629.c: 326:   PORTBbits.RB2=1;
  1577   0015C0  8481               	bsf	129,2,c	;volatile
  1578                           
  1579                           ;lm629.c: 327:   PORTAbits.RA0=1;
  1580   0015C2  8080               	bsf	128,0,c	;volatile
  1581                           
  1582                           ;lm629.c: 328:   PORTBbits.RB4=1;
  1583   0015C4  8881               	bsf	129,4,c	;volatile
  1584                           
  1585                           ;lm629.c: 329:  }
  1586   0015C6  EF15  F00B         	goto	l1037
  1587   0015CA                     l1025:
  1588   0015CA  0407               	decf	chip_select@chip^0,w,c
  1589   0015CC  A4D8               	btfss	status,2,c
  1590   0015CE  EFEB  F00A         	goto	u181
  1591   0015D2  EFED  F00A         	goto	u180
  1592   0015D6                     u181:
  1593   0015D6  EFF3  F00A         	goto	l1029
  1594   0015DA                     u180:
  1595   0015DA                     
  1596                           ;lm629.c: 331:  {;lm629.c: 332:   PORTDbits.RD3=1;
  1597   0015DA  8683               	bsf	131,3,c	;volatile
  1598                           
  1599                           ;lm629.c: 333:   PORTBbits.RB2=0;
  1600   0015DC  9481               	bcf	129,2,c	;volatile
  1601                           
  1602                           ;lm629.c: 334:   PORTAbits.RA0=1;
  1603   0015DE  8080               	bsf	128,0,c	;volatile
  1604                           
  1605                           ;lm629.c: 335:   PORTBbits.RB4=1;
  1606   0015E0  8881               	bsf	129,4,c	;volatile
  1607                           
  1608                           ;lm629.c: 336:  }
  1609   0015E2  EF15  F00B         	goto	l1037
  1610   0015E6                     l1029:
  1611   0015E6  0E02               	movlw	2
  1612   0015E8  1807               	xorwf	chip_select@chip^0,w,c
  1613   0015EA  A4D8               	btfss	status,2,c
  1614   0015EC  EFFA  F00A         	goto	u191
  1615   0015F0  EFFC  F00A         	goto	u190
  1616   0015F4                     u191:
  1617   0015F4  EF02  F00B         	goto	l1033
  1618   0015F8                     u190:
  1619   0015F8                     
  1620                           ;lm629.c: 338:  {;lm629.c: 339:   PORTDbits.RD3=1;
  1621   0015F8  8683               	bsf	131,3,c	;volatile
  1622                           
  1623                           ;lm629.c: 340:   PORTBbits.RB2=1;
  1624   0015FA  8481               	bsf	129,2,c	;volatile
  1625                           
  1626                           ;lm629.c: 341:   PORTAbits.RA0=0;
  1627   0015FC  9080               	bcf	128,0,c	;volatile
  1628                           
  1629                           ;lm629.c: 342:   PORTBbits.RB4=1;
  1630   0015FE  8881               	bsf	129,4,c	;volatile
  1631                           
  1632                           ;lm629.c: 343:  }
  1633   001600  EF15  F00B         	goto	l1037
  1634   001604                     l1033:
  1635   001604  0E03               	movlw	3
  1636   001606  1807               	xorwf	chip_select@chip^0,w,c
  1637   001608  A4D8               	btfss	status,2,c
  1638   00160A  EF09  F00B         	goto	u201
  1639   00160E  EF0B  F00B         	goto	u200
  1640   001612                     u201:
  1641   001612  EF11  F00B         	goto	l155
  1642   001616                     u200:
  1643   001616                     
  1644                           ;lm629.c: 345:  {;lm629.c: 346:   PORTDbits.RD3=1;
  1645   001616  8683               	bsf	131,3,c	;volatile
  1646                           
  1647                           ;lm629.c: 347:   PORTBbits.RB2=1;
  1648   001618  8481               	bsf	129,2,c	;volatile
  1649                           
  1650                           ;lm629.c: 348:   PORTAbits.RA0=1;
  1651   00161A  8080               	bsf	128,0,c	;volatile
  1652                           
  1653                           ;lm629.c: 349:   PORTBbits.RB4=0;
  1654   00161C  9881               	bcf	129,4,c	;volatile
  1655                           
  1656                           ;lm629.c: 350:  }
  1657   00161E  EF15  F00B         	goto	l1037
  1658   001622                     l155:
  1659                           
  1660                           ;lm629.c: 352:  {;lm629.c: 353:   PORTDbits.RD3=1;
  1661   001622  8683               	bsf	131,3,c	;volatile
  1662                           
  1663                           ;lm629.c: 354:   PORTBbits.RB2=1;
  1664   001624  8481               	bsf	129,2,c	;volatile
  1665                           
  1666                           ;lm629.c: 355:   PORTAbits.RA0=1;
  1667   001626  8080               	bsf	128,0,c	;volatile
  1668                           
  1669                           ;lm629.c: 356:   PORTBbits.RB4=1;
  1670   001628  8881               	bsf	129,4,c	;volatile
  1671   00162A                     l1037:
  1672                           
  1673                           ;lm629.c: 359:  _delay((unsigned long)((1)*(64000000/4000000.0)));
  1674   00162A  0E05               	movlw	5
  1675   00162C                     u667:
  1676   00162C  2EE8               	decfsz	wreg,f,c
  1677   00162E  D7FE               	bra	u667
  1678   001630  F000               	nop	
  1679   001632  0012               	return		;funcret
  1680   001634                     __end_of_chip_select:
  1681                           	callstack 0
  1682                           
  1683 ;; *************** function _filter_module *****************
  1684 ;; Defined at:
  1685 ;;		line 400 in file "lm629.c"
  1686 ;; Parameters:    Size  Location     Type
  1687 ;;		None
  1688 ;; Auto vars:     Size  Location     Type
  1689 ;;		None
  1690 ;; Return value:  Size  Location     Type
  1691 ;;                  1    wreg      void 
  1692 ;; Registers used:
  1693 ;;		wreg, status,2, status,0, cstack
  1694 ;; Tracked objects:
  1695 ;;		On entry : 0/0
  1696 ;;		On exit  : 0/0
  1697 ;;		Unchanged: 0/0
  1698 ;; Data sizes:     COMRAM   BANK0   BANK1   BANK2   BANK3   BANK4   BANK5   BANK6   BANK7   BANK8   BANK9  BANK10  BANK1
      +1  BANK12  BANK13  BANK14  BANK15
  1699 ;;      Params:         0       0       0       0       0       0       0       0       0       0       0       0       
      +0       0       0       0       0
  1700 ;;      Locals:         0       0       0       0       0       0       0       0       0       0       0       0       
      +0       0       0       0       0
  1701 ;;      Temps:          0       0       0       0       0       0       0       0       0       0       0       0       
      +0       0       0       0       0
  1702 ;;      Totals:         0       0       0       0       0       0       0       0       0       0       0       0       
      +0       0       0       0       0
  1703 ;;Total ram usage:        0 bytes
  1704 ;; Hardware stack levels used: 1
  1705 ;; Hardware stack levels required when called: 5
  1706 ;; This function calls:
  1707 ;;		_write_command
  1708 ;;		_write_data
  1709 ;; This function is called by:
  1710 ;;		_LM629_init
  1711 ;; This function uses a non-reentrant model
  1712 ;;
  1713                           
  1714                           	psect	text10
  1715   001726                     __ptext10:
  1716                           	callstack 0
  1717   001726                     _filter_module:
  1718                           	callstack 24
  1719   001726                     
  1720                           ;lm629.c: 402:     write_command(0x1E);
  1721   001726  0E1E               	movlw	30
  1722   001728  EC72  F00B         	call	_write_command
  1723                           
  1724                           ;lm629.c: 403:     write_data(0x00,0x0F);
  1725   00172C  0E0F               	movlw	15
  1726   00172E  6E0E               	movwf	write_data@LSB^0,c
  1727   001730  0E00               	movlw	0
  1728   001732  EC1A  F00B         	call	_write_data
  1729                           
  1730                           ;lm629.c: 404:     write_data(0x01,0x0F);
  1731   001736  0E0F               	movlw	15
  1732   001738  6E0E               	movwf	write_data@LSB^0,c
  1733   00173A  0E01               	movlw	1
  1734   00173C  EC1A  F00B         	call	_write_data
  1735                           
  1736                           ;lm629.c: 405:     write_data(0x00,0x04);
  1737   001740  0E04               	movlw	4
  1738   001742  6E0E               	movwf	write_data@LSB^0,c
  1739   001744  0E00               	movlw	0
  1740   001746  EC1A  F00B         	call	_write_data
  1741                           
  1742                           ;lm629.c: 406:     write_data(0x7F,0xFF);
  1743   00174A  0EFF               	movlw	255
  1744   00174C  6E0E               	movwf	write_data@LSB^0,c
  1745   00174E  0E7F               	movlw	127
  1746   001750  EC1A  F00B         	call	_write_data
  1747                           
  1748                           ;lm629.c: 407:     write_data(0x00,0xFF);
  1749   001754  0EFF               	movlw	255
  1750   001756  6E0E               	movwf	write_data@LSB^0,c
  1751   001758  0E00               	movlw	0
  1752   00175A  EC1A  F00B         	call	_write_data
  1753                           
  1754                           ;lm629.c: 408:     write_command(0x04);
  1755   00175E  0E04               	movlw	4
  1756   001760  EC72  F00B         	call	_write_command
  1757   001764  0012               	return		;funcret
  1758   001766                     __end_of_filter_module:
  1759                           	callstack 0
  1760                           
  1761 ;; *************** function _write_data *****************
  1762 ;; Defined at:
  1763 ;;		line 93 in file "lm629.c"
  1764 ;; Parameters:    Size  Location     Type
  1765 ;;  MSB             1    wreg     unsigned char 
  1766 ;;  LSB             1   13[COMRAM] unsigned char 
  1767 ;; Auto vars:     Size  Location     Type
  1768 ;;  MSB             1   14[COMRAM] unsigned char 
  1769 ;; Return value:  Size  Location     Type
  1770 ;;                  1    wreg      void 
  1771 ;; Registers used:
  1772 ;;		wreg, status,2, status,0, cstack
  1773 ;; Tracked objects:
  1774 ;;		On entry : 0/0
  1775 ;;		On exit  : 0/0
  1776 ;;		Unchanged: 0/0
  1777 ;; Data sizes:     COMRAM   BANK0   BANK1   BANK2   BANK3   BANK4   BANK5   BANK6   BANK7   BANK8   BANK9  BANK10  BANK1
      +1  BANK12  BANK13  BANK14  BANK15
  1778 ;;      Params:         1       0       0       0       0       0       0       0       0       0       0       0       
      +0       0       0       0       0
  1779 ;;      Locals:         1       0       0       0       0       0       0       0       0       0       0       0       
      +0       0       0       0       0
  1780 ;;      Temps:          0       0       0       0       0       0       0       0       0       0       0       0       
      +0       0       0       0       0
  1781 ;;      Totals:         2       0       0       0       0       0       0       0       0       0       0       0       
      +0       0       0       0       0
  1782 ;;Total ram usage:        2 bytes
  1783 ;; Hardware stack levels used: 1
  1784 ;; Hardware stack levels required when called: 4
  1785 ;; This function calls:
  1786 ;;		_DATABUS
  1787 ;;		_DATABUS_DIR
  1788 ;;		_check_busy
  1789 ;; This function is called by:
  1790 ;;		_LM629_init
  1791 ;;		_motor_off
  1792 ;;		_filter_module
  1793 ;;		_set_absolute_acceleration
  1794 ;;		_set_absolute_velocity
  1795 ;;		_motor_break
  1796 ;;		_simple_absolute_position
  1797 ;;		_simple_relative_position
  1798 ;; This function uses a non-reentrant model
  1799 ;;
  1800                           
  1801                           	psect	text11
  1802   001634                     __ptext11:
  1803                           	callstack 0
  1804   001634                     _write_data:
  1805                           	callstack 25
  1806                           
  1807                           ;incstack = 0
  1808                           ;write_data@MSB stored from wreg
  1809   001634  6E0F               	movwf	write_data@MSB^0,c
  1810   001636                     
  1811                           ;lm629.c: 93: void write_data(uint8_t MSB, uint8_t LSB);lm629.c: 94: {;lm629.c: 95:     
      +                          check_busy();
  1812   001636  EC43  F00C         	call	_check_busy	;wreg free
  1813                           
  1814                           ;lm629.c: 96:  DATABUS_DIR(0);
  1815   00163A  0E00               	movlw	0
  1816   00163C  ECB3  F00B         	call	_DATABUS_DIR
  1817   001640                     
  1818                           ;lm629.c: 97:  PORTCbits.RC2=1;
  1819   001640  8482               	bsf	130,2,c	;volatile
  1820   001642                     
  1821                           ;lm629.c: 98:  _delay(5);
  1822   001642  D000               	nop2		;2 cycle nop
  1823   001644  D000               	nop2		;2 cycle nop
  1824   001646  F000               	nop	
  1825   001648                     
  1826                           ;lm629.c: 99:  PORTDbits.RD1=0;
  1827   001648  9283               	bcf	131,1,c	;volatile
  1828   00164A                     
  1829                           ;lm629.c: 100:  _delay(5);
  1830   00164A  D000               	nop2		;2 cycle nop
  1831   00164C  D000               	nop2		;2 cycle nop
  1832   00164E  F000               	nop	
  1833                           
  1834                           ;lm629.c: 101:  DATABUS(0,MSB);
  1835   001650  C00F  F007         	movff	write_data@MSB,DATABUS@byte0
  1836   001654  0E00               	movlw	0
  1837   001656  EC41  F008         	call	_DATABUS
  1838   00165A                     
  1839                           ;lm629.c: 102:  _delay(5);
  1840   00165A  D000               	nop2		;2 cycle nop
  1841   00165C  D000               	nop2		;2 cycle nop
  1842   00165E  F000               	nop	
  1843   001660                     
  1844                           ;lm629.c: 103:  PORTDbits.RD1=1;
  1845   001660  8283               	bsf	131,1,c	;volatile
  1846   001662                     
  1847                           ;lm629.c: 104:  _delay(5);
  1848   001662  D000               	nop2		;2 cycle nop
  1849   001664  D000               	nop2		;2 cycle nop
  1850   001666  F000               	nop	
  1851   001668                     
  1852                           ;lm629.c: 105:  PORTDbits.RD1=0;
  1853   001668  9283               	bcf	131,1,c	;volatile
  1854   00166A                     
  1855                           ;lm629.c: 106:  _delay(5);
  1856   00166A  D000               	nop2		;2 cycle nop
  1857   00166C  D000               	nop2		;2 cycle nop
  1858   00166E  F000               	nop	
  1859                           
  1860                           ;lm629.c: 107:  DATABUS(0,LSB);
  1861   001670  C00E  F007         	movff	write_data@LSB,DATABUS@byte0
  1862   001674  0E00               	movlw	0
  1863   001676  EC41  F008         	call	_DATABUS
  1864   00167A                     
  1865                           ;lm629.c: 108:  _delay(5);
  1866   00167A  D000               	nop2		;2 cycle nop
  1867   00167C  D000               	nop2		;2 cycle nop
  1868   00167E  F000               	nop	
  1869   001680                     
  1870                           ;lm629.c: 109:  PORTDbits.RD1=1;
  1871   001680  8283               	bsf	131,1,c	;volatile
  1872   001682                     
  1873                           ;lm629.c: 110:  _delay(5);
  1874   001682  D000               	nop2		;2 cycle nop
  1875   001684  D000               	nop2		;2 cycle nop
  1876   001686  F000               	nop	
  1877   001688                     
  1878                           ;lm629.c: 111:  PORTCbits.RC2=1;
  1879   001688  8482               	bsf	130,2,c	;volatile
  1880   00168A                     
  1881                           ;lm629.c: 112:     _delay(5);
  1882   00168A  D000               	nop2		;2 cycle nop
  1883   00168C  D000               	nop2		;2 cycle nop
  1884   00168E  F000               	nop	
  1885                           
  1886                           ;lm629.c: 113:     check_busy();
  1887   001690  EC43  F00C         	call	_check_busy	;wreg free
  1888   001694  0012               	return		;funcret
  1889   001696                     __end_of_write_data:
  1890                           	callstack 0
  1891                           
  1892 ;; *************** function _write_command *****************
  1893 ;; Defined at:
  1894 ;;		line 118 in file "lm629.c"
  1895 ;; Parameters:    Size  Location     Type
  1896 ;;  command         1    wreg     unsigned char 
  1897 ;; Auto vars:     Size  Location     Type
  1898 ;;  command         1   13[COMRAM] unsigned char 
  1899 ;; Return value:  Size  Location     Type
  1900 ;;                  1    wreg      void 
  1901 ;; Registers used:
  1902 ;;		wreg, status,2, status,0, cstack
  1903 ;; Tracked objects:
  1904 ;;		On entry : 0/0
  1905 ;;		On exit  : 0/0
  1906 ;;		Unchanged: 0/0
  1907 ;; Data sizes:     COMRAM   BANK0   BANK1   BANK2   BANK3   BANK4   BANK5   BANK6   BANK7   BANK8   BANK9  BANK10  BANK1
      +1  BANK12  BANK13  BANK14  BANK15
  1908 ;;      Params:         0       0       0       0       0       0       0       0       0       0       0       0       
      +0       0       0       0       0
  1909 ;;      Locals:         1       0       0       0       0       0       0       0       0       0       0       0       
      +0       0       0       0       0
  1910 ;;      Temps:          0       0       0       0       0       0       0       0       0       0       0       0       
      +0       0       0       0       0
  1911 ;;      Totals:         1       0       0       0       0       0       0       0       0       0       0       0       
      +0       0       0       0       0
  1912 ;;Total ram usage:        1 bytes
  1913 ;; Hardware stack levels used: 1
  1914 ;; Hardware stack levels required when called: 4
  1915 ;; This function calls:
  1916 ;;		_DATABUS
  1917 ;;		_DATABUS_DIR
  1918 ;;		_check_busy
  1919 ;; This function is called by:
  1920 ;;		_LM629_init
  1921 ;;		_motor_off
  1922 ;;		_filter_module
  1923 ;;		_set_absolute_acceleration
  1924 ;;		_set_absolute_velocity
  1925 ;;		_motor_break
  1926 ;;		_simple_absolute_position
  1927 ;;		_simple_relative_position
  1928 ;; This function uses a non-reentrant model
  1929 ;;
  1930                           
  1931                           	psect	text12
  1932   0016E4                     __ptext12:
  1933                           	callstack 0
  1934   0016E4                     _write_command:
  1935                           	callstack 25
  1936                           
  1937                           ;incstack = 0
  1938                           ;write_command@command stored from wreg
  1939   0016E4  6E0E               	movwf	write_command@command^0,c
  1940   0016E6                     
  1941                           ;lm629.c: 118: void write_command(unsigned char command);lm629.c: 119: {;lm629.c: 120:  
      +                             check_busy();
  1942   0016E6  EC43  F00C         	call	_check_busy	;wreg free
  1943                           
  1944                           ;lm629.c: 121:  DATABUS_DIR(0);
  1945   0016EA  0E00               	movlw	0
  1946   0016EC  ECB3  F00B         	call	_DATABUS_DIR
  1947   0016F0                     
  1948                           ;lm629.c: 122:  PORTCbits.RC2=0;
  1949   0016F0  9482               	bcf	130,2,c	;volatile
  1950   0016F2                     
  1951                           ;lm629.c: 123:  _delay(5);
  1952   0016F2  D000               	nop2		;2 cycle nop
  1953   0016F4  D000               	nop2		;2 cycle nop
  1954   0016F6  F000               	nop	
  1955   0016F8                     
  1956                           ;lm629.c: 124:  PORTDbits.RD1=0;
  1957   0016F8  9283               	bcf	131,1,c	;volatile
  1958   0016FA                     
  1959                           ;lm629.c: 125:  _delay(5);
  1960   0016FA  D000               	nop2		;2 cycle nop
  1961   0016FC  D000               	nop2		;2 cycle nop
  1962   0016FE  F000               	nop	
  1963                           
  1964                           ;lm629.c: 126:  DATABUS(0,command);
  1965   001700  C00E  F007         	movff	write_command@command,DATABUS@byte0
  1966   001704  0E00               	movlw	0
  1967   001706  EC41  F008         	call	_DATABUS
  1968   00170A                     
  1969                           ;lm629.c: 127:  _delay(5);
  1970   00170A  D000               	nop2		;2 cycle nop
  1971   00170C  D000               	nop2		;2 cycle nop
  1972   00170E  F000               	nop	
  1973   001710                     
  1974                           ;lm629.c: 128:  PORTDbits.RD1=1;
  1975   001710  8283               	bsf	131,1,c	;volatile
  1976   001712                     
  1977                           ;lm629.c: 129:  _delay(5);
  1978   001712  D000               	nop2		;2 cycle nop
  1979   001714  D000               	nop2		;2 cycle nop
  1980   001716  F000               	nop	
  1981   001718                     
  1982                           ;lm629.c: 130:  PORTCbits.RC2=1;
  1983   001718  8482               	bsf	130,2,c	;volatile
  1984   00171A                     
  1985                           ;lm629.c: 131:  _delay(5);
  1986   00171A  D000               	nop2		;2 cycle nop
  1987   00171C  D000               	nop2		;2 cycle nop
  1988   00171E  F000               	nop	
  1989                           
  1990                           ;lm629.c: 132:     check_busy();
  1991   001720  EC43  F00C         	call	_check_busy	;wreg free
  1992   001724  0012               	return		;funcret
  1993   001726                     __end_of_write_command:
  1994                           	callstack 0
  1995                           
  1996 ;; *************** function _check_busy *****************
  1997 ;; Defined at:
  1998 ;;		line 34 in file "lm629.c"
  1999 ;; Parameters:    Size  Location     Type
  2000 ;;		None
  2001 ;; Auto vars:     Size  Location     Type
  2002 ;;  x               1   12[COMRAM] unsigned char 
  2003 ;; Return value:  Size  Location     Type
  2004 ;;                  1    wreg      void 
  2005 ;; Registers used:
  2006 ;;		wreg, status,2, status,0, cstack
  2007 ;; Tracked objects:
  2008 ;;		On entry : 0/0
  2009 ;;		On exit  : 0/0
  2010 ;;		Unchanged: 0/0
  2011 ;; Data sizes:     COMRAM   BANK0   BANK1   BANK2   BANK3   BANK4   BANK5   BANK6   BANK7   BANK8   BANK9  BANK10  BANK1
      +1  BANK12  BANK13  BANK14  BANK15
  2012 ;;      Params:         0       0       0       0       0       0       0       0       0       0       0       0       
      +0       0       0       0       0
  2013 ;;      Locals:         1       0       0       0       0       0       0       0       0       0       0       0       
      +0       0       0       0       0
  2014 ;;      Temps:          0       0       0       0       0       0       0       0       0       0       0       0       
      +0       0       0       0       0
  2015 ;;      Totals:         1       0       0       0       0       0       0       0       0       0       0       0       
      +0       0       0       0       0
  2016 ;;Total ram usage:        1 bytes
  2017 ;; Hardware stack levels used: 1
  2018 ;; Hardware stack levels required when called: 3
  2019 ;; This function calls:
  2020 ;;		_read_status
  2021 ;; This function is called by:
  2022 ;;		_write_data
  2023 ;;		_write_command
  2024 ;;		_LM629_init
  2025 ;;		_read_data
  2026 ;; This function uses a non-reentrant model
  2027 ;;
  2028                           
  2029                           	psect	text13
  2030   001886                     __ptext13:
  2031                           	callstack 0
  2032   001886                     _check_busy:
  2033                           	callstack 25
  2034   001886                     l1455:
  2035                           
  2036                           ;lm629.c: 36:  unsigned char x;;lm629.c: 37:  x=read_status();
  2037   001886  ECF1  F00B         	call	_read_status	;wreg free
  2038   00188A  6E0D               	movwf	check_busy@x^0,c
  2039   00188C                     
  2040                           ;lm629.c: 38:  while (x & 0x01)
  2041   00188C  B00D               	btfsc	check_busy@x^0,0,c
  2042   00188E  EF4B  F00C         	goto	u471
  2043   001892  EF4D  F00C         	goto	u470
  2044   001896                     u471:
  2045   001896  EF43  F00C         	goto	l1455
  2046   00189A                     u470:
  2047   00189A  0012               	return		;funcret
  2048   00189C                     __end_of_check_busy:
  2049                           	callstack 0
  2050                           
  2051 ;; *************** function _read_status *****************
  2052 ;; Defined at:
  2053 ;;		line 45 in file "lm629.c"
  2054 ;; Parameters:    Size  Location     Type
  2055 ;;		None
  2056 ;; Auto vars:     Size  Location     Type
  2057 ;;  status          1   11[COMRAM] unsigned char 
  2058 ;; Return value:  Size  Location     Type
  2059 ;;                  1    wreg      unsigned char 
  2060 ;; Registers used:
  2061 ;;		wreg, status,2, status,0, cstack
  2062 ;; Tracked objects:
  2063 ;;		On entry : 0/0
  2064 ;;		On exit  : 0/0
  2065 ;;		Unchanged: 0/0
  2066 ;; Data sizes:     COMRAM   BANK0   BANK1   BANK2   BANK3   BANK4   BANK5   BANK6   BANK7   BANK8   BANK9  BANK10  BANK1
      +1  BANK12  BANK13  BANK14  BANK15
  2067 ;;      Params:         0       0       0       0       0       0       0       0       0       0       0       0       
      +0       0       0       0       0
  2068 ;;      Locals:         1       0       0       0       0       0       0       0       0       0       0       0       
      +0       0       0       0       0
  2069 ;;      Temps:          0       0       0       0       0       0       0       0       0       0       0       0       
      +0       0       0       0       0
  2070 ;;      Totals:         1       0       0       0       0       0       0       0       0       0       0       0       
      +0       0       0       0       0
  2071 ;;Total ram usage:        1 bytes
  2072 ;; Hardware stack levels used: 1
  2073 ;; Hardware stack levels required when called: 2
  2074 ;; This function calls:
  2075 ;;		_DATABUS
  2076 ;;		_DATABUS_DIR
  2077 ;; This function is called by:
  2078 ;;		_check_busy
  2079 ;;		_LM629_init
  2080 ;; This function uses a non-reentrant model
  2081 ;;
  2082                           
  2083                           	psect	text14
  2084   0017E2                     __ptext14:
  2085                           	callstack 0
  2086   0017E2                     _read_status:
  2087                           	callstack 25
  2088   0017E2                     
  2089                           ;lm629.c: 47:  unsigned char status;;lm629.c: 48:  DATABUS_DIR(0xFF);
  2090   0017E2  0EFF               	movlw	255
  2091   0017E4  ECB3  F00B         	call	_DATABUS_DIR
  2092   0017E8                     
  2093                           ;lm629.c: 49:  PORTCbits.RC2=0;
  2094   0017E8  9482               	bcf	130,2,c	;volatile
  2095   0017EA                     
  2096                           ;lm629.c: 50:  _delay(3);
  2097   0017EA  D000               	nop2		;2 cycle nop
  2098   0017EC  F000               	nop	
  2099   0017EE                     
  2100                           ;lm629.c: 51:  PORTDbits.RD2=0;
  2101   0017EE  9483               	bcf	131,2,c	;volatile
  2102   0017F0                     
  2103                           ;lm629.c: 52:  _delay(5);
  2104   0017F0  D000               	nop2		;2 cycle nop
  2105   0017F2  D000               	nop2		;2 cycle nop
  2106   0017F4  F000               	nop	
  2107                           
  2108                           ;lm629.c: 53:  status=DATABUS(0xFF,0);
  2109   0017F6  0E00               	movlw	0
  2110   0017F8  6E07               	movwf	DATABUS@byte0^0,c
  2111   0017FA  0EFF               	movlw	255
  2112   0017FC  EC41  F008         	call	_DATABUS
  2113   001800  6E0C               	movwf	read_status@status^0,c
  2114   001802                     
  2115                           ;lm629.c: 54:  PORTDbits.RD2=1;
  2116   001802  8483               	bsf	131,2,c	;volatile
  2117   001804                     
  2118                           ;lm629.c: 55:  _delay(3);
  2119   001804  D000               	nop2		;2 cycle nop
  2120   001806  F000               	nop	
  2121   001808                     
  2122                           ;lm629.c: 56:  PORTCbits.RC2=1;
  2123   001808  8482               	bsf	130,2,c	;volatile
  2124   00180A                     
  2125                           ;lm629.c: 57:     _delay(3);
  2126   00180A  D000               	nop2		;2 cycle nop
  2127   00180C  F000               	nop	
  2128   00180E                     
  2129                           ;lm629.c: 59: return status;
  2130   00180E  500C               	movf	read_status@status^0,w,c
  2131   001810  0012               	return		;funcret
  2132   001812                     __end_of_read_status:
  2133                           	callstack 0
  2134                           
  2135 ;; *************** function _DATABUS_DIR *****************
  2136 ;; Defined at:
  2137 ;;		line 271 in file "lm629.c"
  2138 ;; Parameters:    Size  Location     Type
  2139 ;;  dir             1    wreg     unsigned char 
  2140 ;; Auto vars:     Size  Location     Type
  2141 ;;  dir             1    6[COMRAM] unsigned char 
  2142 ;; Return value:  Size  Location     Type
  2143 ;;                  1    wreg      void 
  2144 ;; Registers used:
  2145 ;;		wreg, status,2, status,0
  2146 ;; Tracked objects:
  2147 ;;		On entry : 0/0
  2148 ;;		On exit  : 0/0
  2149 ;;		Unchanged: 0/0
  2150 ;; Data sizes:     COMRAM   BANK0   BANK1   BANK2   BANK3   BANK4   BANK5   BANK6   BANK7   BANK8   BANK9  BANK10  BANK1
      +1  BANK12  BANK13  BANK14  BANK15
  2151 ;;      Params:         0       0       0       0       0       0       0       0       0       0       0       0       
      +0       0       0       0       0
  2152 ;;      Locals:         1       0       0       0       0       0       0       0       0       0       0       0       
      +0       0       0       0       0
  2153 ;;      Temps:          0       0       0       0       0       0       0       0       0       0       0       0       
      +0       0       0       0       0
  2154 ;;      Totals:         1       0       0       0       0       0       0       0       0       0       0       0       
      +0       0       0       0       0
  2155 ;;Total ram usage:        1 bytes
  2156 ;; Hardware stack levels used: 1
  2157 ;; Hardware stack levels required when called: 1
  2158 ;; This function calls:
  2159 ;;		Nothing
  2160 ;; This function is called by:
  2161 ;;		_read_status
  2162 ;;		_write_data
  2163 ;;		_write_command
  2164 ;;		_read_data
  2165 ;; This function uses a non-reentrant model
  2166 ;;
  2167                           
  2168                           	psect	text15
  2169   001766                     __ptext15:
  2170                           	callstack 0
  2171   001766                     _DATABUS_DIR:
  2172                           	callstack 25
  2173                           
  2174                           ;incstack = 0
  2175                           ;DATABUS_DIR@dir stored from wreg
  2176   001766  6E07               	movwf	DATABUS_DIR@dir^0,c
  2177   001768                     
  2178                           ;lm629.c: 271: void DATABUS_DIR(unsigned char dir);lm629.c: 272: {;lm629.c: 273:     if(
      +                          dir==0)
  2179   001768  5007               	movf	DATABUS_DIR@dir^0,w,c
  2180   00176A  A4D8               	btfss	status,2,c
  2181   00176C  EFBA  F00B         	goto	u11
  2182   001770  EFBC  F00B         	goto	u10
  2183   001774                     u11:
  2184   001774  EFC4  F00B         	goto	l925
  2185   001778                     u10:
  2186   001778                     
  2187                           ;lm629.c: 274:     {;lm629.c: 275:         TRISC&=0b00111111;
  2188   001778  0E3F               	movlw	63
  2189   00177A  1694               	andwf	148,f,c	;volatile
  2190                           
  2191                           ;lm629.c: 276:         TRISD&=0b00001111;
  2192   00177C  0E0F               	movlw	15
  2193   00177E  1695               	andwf	149,f,c	;volatile
  2194                           
  2195                           ;lm629.c: 277:         TRISB&=0b11111100;
  2196   001780  0EFC               	movlw	252
  2197   001782  1693               	andwf	147,f,c	;volatile
  2198                           
  2199                           ;lm629.c: 278:     }
  2200   001784  EFD2  F00B         	goto	l140
  2201   001788                     l925:
  2202   001788  2807               	incf	DATABUS_DIR@dir^0,w,c
  2203   00178A  A4D8               	btfss	status,2,c
  2204   00178C  EFCA  F00B         	goto	u21
  2205   001790  EFCC  F00B         	goto	u20
  2206   001794                     u21:
  2207   001794  EFD2  F00B         	goto	l140
  2208   001798                     u20:
  2209   001798                     
  2210                           ;lm629.c: 280:     {;lm629.c: 281:         TRISC|=0b11000000;
  2211   001798  0EC0               	movlw	192
  2212   00179A  1294               	iorwf	148,f,c	;volatile
  2213                           
  2214                           ;lm629.c: 282:         TRISD|=0b11110000;
  2215   00179C  0EF0               	movlw	240
  2216   00179E  1295               	iorwf	149,f,c	;volatile
  2217                           
  2218                           ;lm629.c: 283:         TRISB|=0b00000011;
  2219   0017A0  0E03               	movlw	3
  2220   0017A2  1293               	iorwf	147,f,c	;volatile
  2221   0017A4                     l140:
  2222   0017A4  0012               	return		;funcret
  2223   0017A6                     __end_of_DATABUS_DIR:
  2224                           	callstack 0
  2225                           
  2226 ;; *************** function _DATABUS *****************
  2227 ;; Defined at:
  2228 ;;		line 290 in file "lm629.c"
  2229 ;; Parameters:    Size  Location     Type
  2230 ;;  dir1            1    wreg     unsigned char 
  2231 ;;  byte0           1    6[COMRAM] unsigned char 
  2232 ;; Auto vars:     Size  Location     Type
  2233 ;;  dir1            1    9[COMRAM] unsigned char 
  2234 ;;  x               1   10[COMRAM] unsigned char 
  2235 ;; Return value:  Size  Location     Type
  2236 ;;                  1    wreg      unsigned char 
  2237 ;; Registers used:
  2238 ;;		wreg, status,2, status,0
  2239 ;; Tracked objects:
  2240 ;;		On entry : 0/0
  2241 ;;		On exit  : 0/0
  2242 ;;		Unchanged: 0/0
  2243 ;; Data sizes:     COMRAM   BANK0   BANK1   BANK2   BANK3   BANK4   BANK5   BANK6   BANK7   BANK8   BANK9  BANK10  BANK1
      +1  BANK12  BANK13  BANK14  BANK15
  2244 ;;      Params:         1       0       0       0       0       0       0       0       0       0       0       0       
      +0       0       0       0       0
  2245 ;;      Locals:         2       0       0       0       0       0       0       0       0       0       0       0       
      +0       0       0       0       0
  2246 ;;      Temps:          2       0       0       0       0       0       0       0       0       0       0       0       
      +0       0       0       0       0
  2247 ;;      Totals:         5       0       0       0       0       0       0       0       0       0       0       0       
      +0       0       0       0       0
  2248 ;;Total ram usage:        5 bytes
  2249 ;; Hardware stack levels used: 1
  2250 ;; Hardware stack levels required when called: 1
  2251 ;; This function calls:
  2252 ;;		Nothing
  2253 ;; This function is called by:
  2254 ;;		_read_status
  2255 ;;		_write_data
  2256 ;;		_write_command
  2257 ;;		_read_data
  2258 ;; This function uses a non-reentrant model
  2259 ;;
  2260                           
  2261                           	psect	text16
  2262   001082                     __ptext16:
  2263                           	callstack 0
  2264   001082                     _DATABUS:
  2265                           	callstack 25
  2266                           
  2267                           ;incstack = 0
  2268                           ;DATABUS@dir1 stored from wreg
  2269   001082  6E0A               	movwf	DATABUS@dir1^0,c
  2270   001084                     
  2271                           ;lm629.c: 290: unsigned char DATABUS(unsigned char dir1, unsigned char byte0);lm629.c: 2
      +                          91: {;lm629.c: 292: unsigned char x;;lm629.c: 293: if(dir1==0)
  2272   001084  500A               	movf	DATABUS@dir1^0,w,c
  2273   001086  A4D8               	btfss	status,2,c
  2274   001088  EF48  F008         	goto	u341
  2275   00108C  EF4A  F008         	goto	u340
  2276   001090                     u341:
  2277   001090  EFC3  F008         	goto	l1425
  2278   001094                     u340:
  2279   001094                     
  2280                           ;lm629.c: 294: {;lm629.c: 295:     PORTCbits.RC6 = ((byte0 & 0x01) >> 0);
  2281   001094  C007  F008         	movff	DATABUS@byte0,??_DATABUS
  2282   001098  0E01               	movlw	1
  2283   00109A  1608               	andwf	??_DATABUS^0,f,c
  2284   00109C  3A08               	swapf	??_DATABUS^0,f,c
  2285   00109E  4608               	rlncf	??_DATABUS^0,f,c
  2286   0010A0  4608               	rlncf	??_DATABUS^0,f,c
  2287   0010A2  5082               	movf	130,w,c	;volatile
  2288   0010A4  1808               	xorwf	??_DATABUS^0,w,c
  2289   0010A6  0BBF               	andlw	-65
  2290   0010A8  1808               	xorwf	??_DATABUS^0,w,c
  2291   0010AA  6E82               	movwf	130,c	;volatile
  2292                           
  2293                           ;lm629.c: 296:     PORTCbits.RC7 = ((byte0 & 0x02) >> 1);
  2294   0010AC  C007  F008         	movff	DATABUS@byte0,??_DATABUS
  2295   0010B0  90D8               	bcf	status,0,c
  2296   0010B2  3208               	rrcf	??_DATABUS^0,f,c
  2297   0010B4  0E01               	movlw	1
  2298   0010B6  1608               	andwf	??_DATABUS^0,f,c
  2299   0010B8  3208               	rrcf	??_DATABUS^0,f,c
  2300   0010BA  3208               	rrcf	??_DATABUS^0,f,c
  2301   0010BC  5082               	movf	130,w,c	;volatile
  2302   0010BE  1808               	xorwf	??_DATABUS^0,w,c
  2303   0010C0  0B7F               	andlw	-129
  2304   0010C2  1808               	xorwf	??_DATABUS^0,w,c
  2305   0010C4  6E82               	movwf	130,c	;volatile
  2306                           
  2307                           ;lm629.c: 297:     PORTDbits.RD4 = ((byte0 & 0x04) >> 2);
  2308   0010C6  C007  F008         	movff	DATABUS@byte0,??_DATABUS
  2309   0010CA  90D8               	bcf	status,0,c
  2310   0010CC  3208               	rrcf	??_DATABUS^0,f,c
  2311   0010CE  90D8               	bcf	status,0,c
  2312   0010D0  3208               	rrcf	??_DATABUS^0,f,c
  2313   0010D2  0E01               	movlw	1
  2314   0010D4  1608               	andwf	??_DATABUS^0,f,c
  2315   0010D6  3A08               	swapf	??_DATABUS^0,f,c
  2316   0010D8  5083               	movf	131,w,c	;volatile
  2317   0010DA  1808               	xorwf	??_DATABUS^0,w,c
  2318   0010DC  0BEF               	andlw	-17
  2319   0010DE  1808               	xorwf	??_DATABUS^0,w,c
  2320   0010E0  6E83               	movwf	131,c	;volatile
  2321                           
  2322                           ;lm629.c: 298:     PORTDbits.RD5 = ((byte0 & 0x08) >> 3);
  2323   0010E2  C007  F008         	movff	DATABUS@byte0,??_DATABUS
  2324   0010E6  90D8               	bcf	status,0,c
  2325   0010E8  3208               	rrcf	??_DATABUS^0,f,c
  2326   0010EA  90D8               	bcf	status,0,c
  2327   0010EC  3208               	rrcf	??_DATABUS^0,f,c
  2328   0010EE  90D8               	bcf	status,0,c
  2329   0010F0  3208               	rrcf	??_DATABUS^0,f,c
  2330   0010F2  0E01               	movlw	1
  2331   0010F4  1608               	andwf	??_DATABUS^0,f,c
  2332   0010F6  3A08               	swapf	??_DATABUS^0,f,c
  2333   0010F8  4608               	rlncf	??_DATABUS^0,f,c
  2334   0010FA  5083               	movf	131,w,c	;volatile
  2335   0010FC  1808               	xorwf	??_DATABUS^0,w,c
  2336   0010FE  0BDF               	andlw	-33
  2337   001100  1808               	xorwf	??_DATABUS^0,w,c
  2338   001102  6E83               	movwf	131,c	;volatile
  2339                           
  2340                           ;lm629.c: 299:     PORTDbits.RD6 = ((byte0 & 0x10) >> 4);
  2341   001104  C007  F008         	movff	DATABUS@byte0,??_DATABUS
  2342   001108  3A08               	swapf	??_DATABUS^0,f,c
  2343   00110A  0E0F               	movlw	15
  2344   00110C  1608               	andwf	??_DATABUS^0,f,c
  2345   00110E  0E01               	movlw	1
  2346   001110  1608               	andwf	??_DATABUS^0,f,c
  2347   001112  3A08               	swapf	??_DATABUS^0,f,c
  2348   001114  4608               	rlncf	??_DATABUS^0,f,c
  2349   001116  4608               	rlncf	??_DATABUS^0,f,c
  2350   001118  5083               	movf	131,w,c	;volatile
  2351   00111A  1808               	xorwf	??_DATABUS^0,w,c
  2352   00111C  0BBF               	andlw	-65
  2353   00111E  1808               	xorwf	??_DATABUS^0,w,c
  2354   001120  6E83               	movwf	131,c	;volatile
  2355                           
  2356                           ;lm629.c: 300:     PORTDbits.RD7 = ((byte0 & 0x20) >> 5);
  2357   001122  C007  F008         	movff	DATABUS@byte0,??_DATABUS
  2358   001126  0E05               	movlw	5
  2359   001128  6E09               	movwf	(??_DATABUS+1)^0,c
  2360   00112A                     u355:
  2361   00112A  90D8               	bcf	status,0,c
  2362   00112C  3208               	rrcf	??_DATABUS^0,f,c
  2363   00112E  2E09               	decfsz	(??_DATABUS+1)^0,f,c
  2364   001130  EF95  F008         	goto	u355
  2365   001134  0E01               	movlw	1
  2366   001136  1608               	andwf	??_DATABUS^0,f,c
  2367   001138  3208               	rrcf	??_DATABUS^0,f,c
  2368   00113A  3208               	rrcf	??_DATABUS^0,f,c
  2369   00113C  5083               	movf	131,w,c	;volatile
  2370   00113E  1808               	xorwf	??_DATABUS^0,w,c
  2371   001140  0B7F               	andlw	-129
  2372   001142  1808               	xorwf	??_DATABUS^0,w,c
  2373   001144  6E83               	movwf	131,c	;volatile
  2374                           
  2375                           ;lm629.c: 301:     PORTBbits.RB0 = ((byte0 & 0x40) >> 6);
  2376   001146  C007  F008         	movff	DATABUS@byte0,??_DATABUS
  2377   00114A  0E06               	movlw	6
  2378   00114C  6E09               	movwf	(??_DATABUS+1)^0,c
  2379   00114E                     u365:
  2380   00114E  90D8               	bcf	status,0,c
  2381   001150  3208               	rrcf	??_DATABUS^0,f,c
  2382   001152  2E09               	decfsz	(??_DATABUS+1)^0,f,c
  2383   001154  EFA7  F008         	goto	u365
  2384   001158  0E01               	movlw	1
  2385   00115A  1608               	andwf	??_DATABUS^0,f,c
  2386   00115C  5081               	movf	129,w,c	;volatile
  2387   00115E  1808               	xorwf	??_DATABUS^0,w,c
  2388   001160  0BFE               	andlw	-2
  2389   001162  1808               	xorwf	??_DATABUS^0,w,c
  2390   001164  6E81               	movwf	129,c	;volatile
  2391                           
  2392                           ;lm629.c: 302:     PORTBbits.RB1 = ((byte0 & 0x80) >> 7);
  2393   001166  6A08               	clrf	??_DATABUS^0,c
  2394   001168  AE07               	btfss	DATABUS@byte0^0,7,c
  2395   00116A  D001               	bra	u375
  2396   00116C  2A08               	incf	??_DATABUS^0,f,c
  2397   00116E                     u375:
  2398   00116E  0E01               	movlw	1
  2399   001170  1608               	andwf	??_DATABUS^0,f,c
  2400   001172  4608               	rlncf	??_DATABUS^0,f,c
  2401   001174  5081               	movf	129,w,c	;volatile
  2402   001176  1808               	xorwf	??_DATABUS^0,w,c
  2403   001178  0BFD               	andlw	-3
  2404   00117A  1808               	xorwf	??_DATABUS^0,w,c
  2405   00117C  6E81               	movwf	129,c	;volatile
  2406   00117E                     
  2407                           ;lm629.c: 303:     x=0;
  2408   00117E  0E00               	movlw	0
  2409   001180  6E0B               	movwf	DATABUS@x^0,c
  2410                           
  2411                           ;lm629.c: 304: }
  2412   001182  EF37  F009         	goto	l1429
  2413   001186                     l1425:
  2414   001186  280A               	incf	DATABUS@dir1^0,w,c
  2415   001188  A4D8               	btfss	status,2,c
  2416   00118A  EFC9  F008         	goto	u381
  2417   00118E  EFCB  F008         	goto	u380
  2418   001192                     u381:
  2419   001192  EF37  F009         	goto	l1429
  2420   001196                     u380:
  2421   001196                     
  2422                           ;lm629.c: 307: {;lm629.c: 309:     x |= PORTBbits.RB1;
  2423   001196  B281               	btfsc	129,1,c	;volatile
  2424   001198  EFD0  F008         	goto	u391
  2425   00119C  EFD3  F008         	goto	u390
  2426   0011A0                     u391:
  2427   0011A0  0E01               	movlw	1
  2428   0011A2  EFD4  F008         	goto	u396
  2429   0011A6                     u390:
  2430   0011A6  0E00               	movlw	0
  2431   0011A8                     u396:
  2432   0011A8  120B               	iorwf	DATABUS@x^0,f,c
  2433                           
  2434                           ;lm629.c: 310:     x = (x<<1) | PORTBbits.RB0;
  2435   0011AA  B081               	btfsc	129,0,c	;volatile
  2436   0011AC  EFDA  F008         	goto	u401
  2437   0011B0  EFDE  F008         	goto	u400
  2438   0011B4                     u401:
  2439   0011B4  6A08               	clrf	??_DATABUS^0,c
  2440   0011B6  2A08               	incf	??_DATABUS^0,f,c
  2441   0011B8  EFDF  F008         	goto	u408
  2442   0011BC                     u400:
  2443   0011BC  6A08               	clrf	??_DATABUS^0,c
  2444   0011BE                     u408:
  2445   0011BE  500B               	movf	DATABUS@x^0,w,c
  2446   0011C0  240B               	addwf	DATABUS@x^0,w,c
  2447   0011C2  1008               	iorwf	??_DATABUS^0,w,c
  2448   0011C4  6E0B               	movwf	DATABUS@x^0,c
  2449                           
  2450                           ;lm629.c: 311:     x = (x<<1) | PORTDbits.RD7;
  2451   0011C6  BE83               	btfsc	131,7,c	;volatile
  2452   0011C8  EFE8  F008         	goto	u411
  2453   0011CC  EFEC  F008         	goto	u410
  2454   0011D0                     u411:
  2455   0011D0  6A08               	clrf	??_DATABUS^0,c
  2456   0011D2  2A08               	incf	??_DATABUS^0,f,c
  2457   0011D4  EFED  F008         	goto	u418
  2458   0011D8                     u410:
  2459   0011D8  6A08               	clrf	??_DATABUS^0,c
  2460   0011DA                     u418:
  2461   0011DA  500B               	movf	DATABUS@x^0,w,c
  2462   0011DC  240B               	addwf	DATABUS@x^0,w,c
  2463   0011DE  1008               	iorwf	??_DATABUS^0,w,c
  2464   0011E0  6E0B               	movwf	DATABUS@x^0,c
  2465                           
  2466                           ;lm629.c: 312:     x = (x<<1) | PORTDbits.RD6;
  2467   0011E2  BC83               	btfsc	131,6,c	;volatile
  2468   0011E4  EFF6  F008         	goto	u421
  2469   0011E8  EFFA  F008         	goto	u420
  2470   0011EC                     u421:
  2471   0011EC  6A08               	clrf	??_DATABUS^0,c
  2472   0011EE  2A08               	incf	??_DATABUS^0,f,c
  2473   0011F0  EFFB  F008         	goto	u428
  2474   0011F4                     u420:
  2475   0011F4  6A08               	clrf	??_DATABUS^0,c
  2476   0011F6                     u428:
  2477   0011F6  500B               	movf	DATABUS@x^0,w,c
  2478   0011F8  240B               	addwf	DATABUS@x^0,w,c
  2479   0011FA  1008               	iorwf	??_DATABUS^0,w,c
  2480   0011FC  6E0B               	movwf	DATABUS@x^0,c
  2481                           
  2482                           ;lm629.c: 313:     x = (x<<1) | PORTDbits.RD5;
  2483   0011FE  BA83               	btfsc	131,5,c	;volatile
  2484   001200  EF04  F009         	goto	u431
  2485   001204  EF08  F009         	goto	u430
  2486   001208                     u431:
  2487   001208  6A08               	clrf	??_DATABUS^0,c
  2488   00120A  2A08               	incf	??_DATABUS^0,f,c
  2489   00120C  EF09  F009         	goto	u438
  2490   001210                     u430:
  2491   001210  6A08               	clrf	??_DATABUS^0,c
  2492   001212                     u438:
  2493   001212  500B               	movf	DATABUS@x^0,w,c
  2494   001214  240B               	addwf	DATABUS@x^0,w,c
  2495   001216  1008               	iorwf	??_DATABUS^0,w,c
  2496   001218  6E0B               	movwf	DATABUS@x^0,c
  2497                           
  2498                           ;lm629.c: 314:     x = (x<<1) | PORTDbits.RD4;
  2499   00121A  B883               	btfsc	131,4,c	;volatile
  2500   00121C  EF12  F009         	goto	u441
  2501   001220  EF16  F009         	goto	u440
  2502   001224                     u441:
  2503   001224  6A08               	clrf	??_DATABUS^0,c
  2504   001226  2A08               	incf	??_DATABUS^0,f,c
  2505   001228  EF17  F009         	goto	u448
  2506   00122C                     u440:
  2507   00122C  6A08               	clrf	??_DATABUS^0,c
  2508   00122E                     u448:
  2509   00122E  500B               	movf	DATABUS@x^0,w,c
  2510   001230  240B               	addwf	DATABUS@x^0,w,c
  2511   001232  1008               	iorwf	??_DATABUS^0,w,c
  2512   001234  6E0B               	movwf	DATABUS@x^0,c
  2513                           
  2514                           ;lm629.c: 315:     x = (x<<1) | PORTCbits.RC7;
  2515   001236  BE82               	btfsc	130,7,c	;volatile
  2516   001238  EF20  F009         	goto	u451
  2517   00123C  EF24  F009         	goto	u450
  2518   001240                     u451:
  2519   001240  6A08               	clrf	??_DATABUS^0,c
  2520   001242  2A08               	incf	??_DATABUS^0,f,c
  2521   001244  EF25  F009         	goto	u458
  2522   001248                     u450:
  2523   001248  6A08               	clrf	??_DATABUS^0,c
  2524   00124A                     u458:
  2525   00124A  500B               	movf	DATABUS@x^0,w,c
  2526   00124C  240B               	addwf	DATABUS@x^0,w,c
  2527   00124E  1008               	iorwf	??_DATABUS^0,w,c
  2528   001250  6E0B               	movwf	DATABUS@x^0,c
  2529                           
  2530                           ;lm629.c: 316:     x = (x<<1) | PORTCbits.RC6;
  2531   001252  BC82               	btfsc	130,6,c	;volatile
  2532   001254  EF2E  F009         	goto	u461
  2533   001258  EF32  F009         	goto	u460
  2534   00125C                     u461:
  2535   00125C  6A08               	clrf	??_DATABUS^0,c
  2536   00125E  2A08               	incf	??_DATABUS^0,f,c
  2537   001260  EF33  F009         	goto	u468
  2538   001264                     u460:
  2539   001264  6A08               	clrf	??_DATABUS^0,c
  2540   001266                     u468:
  2541   001266  500B               	movf	DATABUS@x^0,w,c
  2542   001268  240B               	addwf	DATABUS@x^0,w,c
  2543   00126A  1008               	iorwf	??_DATABUS^0,w,c
  2544   00126C  6E0B               	movwf	DATABUS@x^0,c
  2545   00126E                     l1429:
  2546                           
  2547                           ;lm629.c: 318: return x;
  2548   00126E  500B               	movf	DATABUS@x^0,w,c
  2549   001270  0012               	return		;funcret
  2550   001272                     __end_of_DATABUS:
  2551                           	callstack 0
  2552                           
  2553 ;; *************** function _SPI_ISR *****************
  2554 ;; Defined at:
  2555 ;;		line 40 in file "spi.c"
  2556 ;; Parameters:    Size  Location     Type
  2557 ;;		None
  2558 ;; Auto vars:     Size  Location     Type
  2559 ;;		None
  2560 ;; Return value:  Size  Location     Type
  2561 ;;                  1    wreg      void 
  2562 ;; Registers used:
  2563 ;;		wreg, fsr1l, fsr1h, fsr2l, fsr2h, status,2, status,0
  2564 ;; Tracked objects:
  2565 ;;		On entry : 0/0
  2566 ;;		On exit  : 0/0
  2567 ;;		Unchanged: 0/0
  2568 ;; Data sizes:     COMRAM   BANK0   BANK1   BANK2   BANK3   BANK4   BANK5   BANK6   BANK7   BANK8   BANK9  BANK10  BANK1
      +1  BANK12  BANK13  BANK14  BANK15
  2569 ;;      Params:         0       0       0       0       0       0       0       0       0       0       0       0       
      +0       0       0       0       0
  2570 ;;      Locals:         0       0       0       0       0       0       0       0       0       0       0       0       
      +0       0       0       0       0
  2571 ;;      Temps:          6       0       0       0       0       0       0       0       0       0       0       0       
      +0       0       0       0       0
  2572 ;;      Totals:         6       0       0       0       0       0       0       0       0       0       0       0       
      +0       0       0       0       0
  2573 ;;Total ram usage:        6 bytes
  2574 ;; Hardware stack levels used: 1
  2575 ;; This function calls:
  2576 ;;		Nothing
  2577 ;; This function is called by:
  2578 ;;		Interrupt level 2
  2579 ;; This function uses a non-reentrant model
  2580 ;;
  2581                           
  2582                           	psect	intcode
  2583   000008                     __pintcode:
  2584                           	callstack 0
  2585   000008                     _SPI_ISR:
  2586                           	callstack 24
  2587                           
  2588                           ;incstack = 0
  2589   000008  822E               	bsf	int$flags,1,c	;set compiler interrupt flag (level 2)
  2590   00000A  CFE1 F003          	movff	fsr1l,??_SPI_ISR+2
  2591   00000E  CFE2 F004          	movff	fsr1h,??_SPI_ISR+3
  2592   000012  CFD9 F005          	movff	fsr2l,??_SPI_ISR+4
  2593   000016  CFDA F006          	movff	fsr2h,??_SPI_ISR+5
  2594   00001A                     
  2595                           ;spi.c: 42:     if(PIR1bits.SSP1IF)
  2596   00001A  A69E               	btfss	158,3,c	;volatile
  2597   00001C  EF12  F000         	goto	i2u31_41
  2598   000020  EF14  F000         	goto	i2u31_40
  2599   000024                     i2u31_41:
  2600   000024  EF66  F000         	goto	i2l245
  2601   000028                     i2u31_40:
  2602   000028                     
  2603                           ;spi.c: 43:     {;spi.c: 44:         spi_read_data=SSP1BUF;
  2604   000028  CFC9 F027          	movff	4041,_spi_read_data	;volatile
  2605   00002C                     
  2606                           ;spi.c: 45:         if(spi_read_data == 'z')
  2607   00002C  0E7A               	movlw	122
  2608   00002E  1827               	xorwf	_spi_read_data^0,w,c	;volatile
  2609   000030  A4D8               	btfss	status,2,c
  2610   000032  EF1D  F000         	goto	i2u32_41
  2611   000036  EF1F  F000         	goto	i2u32_40
  2612   00003A                     i2u32_41:
  2613   00003A  EF23  F000         	goto	i2l1357
  2614   00003E                     i2u32_40:
  2615   00003E                     
  2616                           ;spi.c: 46:         {;spi.c: 47:             recording_on = 1;
  2617   00003E  0E01               	movlw	1
  2618   000040  6E26               	movwf	_recording_on^0,c	;volatile
  2619                           
  2620                           ;spi.c: 48:         }
  2621   000042  EF4E  F000         	goto	i2l1371
  2622   000046                     i2l1357:
  2623   000046  0E79               	movlw	121
  2624   000048  1827               	xorwf	_spi_read_data^0,w,c	;volatile
  2625   00004A  A4D8               	btfss	status,2,c
  2626   00004C  EF2A  F000         	goto	i2u33_41
  2627   000050  EF2C  F000         	goto	i2u33_40
  2628   000054                     i2u33_41:
  2629   000054  EF30  F000         	goto	i2l237
  2630   000058                     i2u33_40:
  2631   000058                     
  2632                           ;spi.c: 50:         {;spi.c: 51:             recording_on = 0;
  2633   000058  0E00               	movlw	0
  2634   00005A  6E26               	movwf	_recording_on^0,c	;volatile
  2635                           
  2636                           ;spi.c: 52:         }
  2637   00005C  EF4E  F000         	goto	i2l1371
  2638   000060                     i2l237:
  2639                           
  2640                           ;spi.c: 58:         switch(recording_on)
  2641   000060  EF4E  F000         	goto	i2l1371
  2642   000064                     i2l1361:
  2643                           
  2644                           ;spi.c: 61:                 spi_str_interrupt = &signal_distribution_packet;
  2645   000064  0E28               	movlw	low _signal_distribution_packet
  2646   000066  6E24               	movwf	_spi_str_interrupt^0,c
  2647   000068  0E00               	movlw	high _signal_distribution_packet
  2648   00006A  6E25               	movwf	(_spi_str_interrupt+1)^0,c
  2649                           
  2650                           ;spi.c: 62:                 break;
  2651   00006C  EF63  F000         	goto	i2l242
  2652   000070                     i2l1363:
  2653                           
  2654                           ;spi.c: 64:                 *spi_str_interrupt++ = spi_read_data;
  2655   000070  C024  FFD9         	movff	_spi_str_interrupt,fsr2l
  2656   000074  C025  FFDA         	movff	_spi_str_interrupt+1,fsr2h
  2657   000078  C027  FFDF         	movff	_spi_read_data,indf2	;volatile
  2658   00007C  4A24               	infsnz	_spi_str_interrupt^0,f,c
  2659   00007E  2A25               	incf	(_spi_str_interrupt+1)^0,f,c
  2660                           
  2661                           ;spi.c: 65:                 break;
  2662   000080  EF63  F000         	goto	i2l242
  2663   000084                     i2l1367:
  2664                           
  2665                           ;spi.c: 67:                 *spi_str_interrupt = *spi_str_interrupt;
  2666   000084  C024  FFD9         	movff	_spi_str_interrupt,fsr2l
  2667   000088  C025  FFDA         	movff	_spi_str_interrupt+1,fsr2h
  2668   00008C  C024  FFE1         	movff	_spi_str_interrupt,fsr1l
  2669   000090  C025  FFE2         	movff	_spi_str_interrupt+1,fsr1h
  2670   000094  CFDF FFE7          	movff	indf2,indf1
  2671                           
  2672                           ;spi.c: 68:                 break;
  2673   000098  EF63  F000         	goto	i2l242
  2674   00009C                     i2l1371:
  2675   00009C  5026               	movf	_recording_on^0,w,c	;volatile
  2676   00009E  6E01               	movwf	??_SPI_ISR^0,c
  2677   0000A0  6A02               	clrf	(??_SPI_ISR+1)^0,c
  2678                           
  2679                           ; Switch on 2 bytes has been partitioned into a top level switch of size 1, and 1 sub-sw
      +                          itches
  2680                           ; Switch size 1, requested type "simple"
  2681                           ; Number of cases is 1, Range of values is 0 to 0
  2682                           ; switch strategies available:
  2683                           ; Name         Instructions Cycles
  2684                           ; simple_byte            4     3 (average)
  2685                           ;	Chosen strategy is simple_byte
  2686   0000A2  5002               	movf	(??_SPI_ISR+1)^0,w,c
  2687   0000A4  0A00               	xorlw	0	; case 0
  2688   0000A6  B4D8               	btfsc	status,2,c
  2689   0000A8  EF58  F000         	goto	i2l1841
  2690   0000AC  EF42  F000         	goto	i2l1367
  2691   0000B0                     i2l1841:
  2692                           
  2693                           ; Switch size 1, requested type "simple"
  2694                           ; Number of cases is 2, Range of values is 0 to 1
  2695                           ; switch strategies available:
  2696                           ; Name         Instructions Cycles
  2697                           ; simple_byte            7     4 (average)
  2698                           ;	Chosen strategy is simple_byte
  2699   0000B0  5001               	movf	??_SPI_ISR^0,w,c
  2700   0000B2  0A00               	xorlw	0	; case 0
  2701   0000B4  B4D8               	btfsc	status,2,c
  2702   0000B6  EF32  F000         	goto	i2l1361
  2703   0000BA  0A01               	xorlw	1	; case 1
  2704   0000BC  B4D8               	btfsc	status,2,c
  2705   0000BE  EF38  F000         	goto	i2l1363
  2706   0000C2  EF42  F000         	goto	i2l1367
  2707   0000C6                     i2l242:
  2708                           
  2709                           ;spi.c: 70:         PIR1bits.SSP1IF=0;
  2710   0000C6  969E               	bcf	158,3,c	;volatile
  2711   0000C8                     
  2712                           ;spi.c: 71:         SSP1BUF = 0x55;
  2713   0000C8  0E55               	movlw	85
  2714   0000CA  6EC9               	movwf	201,c	;volatile
  2715   0000CC                     i2l245:
  2716   0000CC  C006  FFDA         	movff	??_SPI_ISR+5,fsr2h
  2717   0000D0  C005  FFD9         	movff	??_SPI_ISR+4,fsr2l
  2718   0000D4  C004  FFE2         	movff	??_SPI_ISR+3,fsr1h
  2719   0000D8  C003  FFE1         	movff	??_SPI_ISR+2,fsr1l
  2720   0000DC  922E               	bcf	int$flags,1,c	;clear compiler interrupt flag (level 2)
  2721   0000DE  0011               	retfie		f
  2722   0000E0                     __end_of_SPI_ISR:
  2723                           	callstack 0
  2724                           
  2725                           	psect	rparam
  2726   000000                     
  2727                           	psect	temp
  2728   00002E                     btemp:
  2729                           	callstack 0
  2730   00002E                     	ds	1
  2731   000000                     int$flags	set	btemp
  2732   000000                     wtemp8	set	btemp+1
  2733   000000                     ttemp5	set	btemp+1
  2734   000000                     ttemp6	set	btemp+4
  2735   000000                     ttemp7	set	btemp+8
  2736                           
  2737                           	psect	idloc
  2738                           
  2739                           ;Config register IDLOC0 @ 0x200000
  2740                           ;	unspecified, using default values
  2741   200000                     	org	2097152
  2742   200000  FF                 	db	255
  2743                           
  2744                           ;Config register IDLOC1 @ 0x200001
  2745                           ;	unspecified, using default values
  2746   200001                     	org	2097153
  2747   200001  FF                 	db	255
  2748                           
  2749                           ;Config register IDLOC2 @ 0x200002
  2750                           ;	unspecified, using default values
  2751   200002                     	org	2097154
  2752   200002  FF                 	db	255
  2753                           
  2754                           ;Config register IDLOC3 @ 0x200003
  2755                           ;	unspecified, using default values
  2756   200003                     	org	2097155
  2757   200003  FF                 	db	255
  2758                           
  2759                           ;Config register IDLOC4 @ 0x200004
  2760                           ;	unspecified, using default values
  2761   200004                     	org	2097156
  2762   200004  FF                 	db	255
  2763                           
  2764                           ;Config register IDLOC5 @ 0x200005
  2765                           ;	unspecified, using default values
  2766   200005                     	org	2097157
  2767   200005  FF                 	db	255
  2768                           
  2769                           ;Config register IDLOC6 @ 0x200006
  2770                           ;	unspecified, using default values
  2771   200006                     	org	2097158
  2772   200006  FF                 	db	255
  2773                           
  2774                           ;Config register IDLOC7 @ 0x200007
  2775                           ;	unspecified, using default values
  2776   200007                     	org	2097159
  2777   200007  FF                 	db	255
  2778                           
  2779                           	psect	config
  2780                           
  2781                           ; Padding undefined space
  2782   300000                     	org	3145728
  2783   300000  FF                 	db	255
  2784                           
  2785                           ;Config register CONFIG1H @ 0x300001
  2786                           ;	Oscillator Selection bits
  2787                           ;	FOSC = HSHP, HS oscillator (high power > 16 MHz)
  2788                           ;	4X PLL Enable
  2789                           ;	PLLCFG = ON, Oscillator multiplied by 4
  2790                           ;	Primary clock enable bit
  2791                           ;	PRICLKEN = ON, Primary clock is always enabled
  2792                           ;	Fail-Safe Clock Monitor Enable bit
  2793                           ;	FCMEN = OFF, Fail-Safe Clock Monitor disabled
  2794                           ;	Internal/External Oscillator Switchover bit
  2795                           ;	IESO = OFF, Oscillator Switchover mode disabled
  2796   300001                     	org	3145729
  2797   300001  32                 	db	50
  2798                           
  2799                           ;Config register CONFIG2L @ 0x300002
  2800                           ;	Power-up Timer Enable bit
  2801                           ;	PWRTEN = OFF, Power up timer disabled
  2802                           ;	Brown-out Reset Enable bits
  2803                           ;	BOREN = OFF, Brown-out Reset disabled in hardware and software
  2804                           ;	Brown Out Reset Voltage bits
  2805                           ;	BORV = 0x3, unprogrammed default
  2806   300002                     	org	3145730
  2807   300002  19                 	db	25
  2808                           
  2809                           ;Config register CONFIG2H @ 0x300003
  2810                           ;	Watchdog Timer Enable bits
  2811                           ;	WDTEN = OFF, Watch dog timer is always disabled. SWDTEN has no effect.
  2812                           ;	Watchdog Timer Postscale Select bits
  2813                           ;	WDTPS = 0xF, unprogrammed default
  2814   300003                     	org	3145731
  2815   300003  3C                 	db	60
  2816                           
  2817                           ; Padding undefined space
  2818   300004                     	org	3145732
  2819   300004  FF                 	db	255
  2820                           
  2821                           ;Config register CONFIG3H @ 0x300005
  2822                           ;	CCP2 MUX bit
  2823                           ;	CCP2MX = PORTC1, CCP2 input/output is multiplexed with RC1
  2824                           ;	PORTB A/D Enable bit
  2825                           ;	PBADEN = OFF, PORTB<5:0> pins are configured as digital I/O on Reset
  2826                           ;	P3A/CCP3 Mux bit
  2827                           ;	CCP3MX = PORTE0, P3A/CCP3 input/output is mulitplexed with RE0
  2828                           ;	HFINTOSC Fast Start-up
  2829                           ;	HFOFST = OFF, HFINTOSC output and ready status are delayed by the oscillator stable st
      +                          atus
  2830                           ;	Timer3 Clock input mux bit
  2831                           ;	T3CMX = PORTC0, T3CKI is on RC0
  2832                           ;	ECCP2 B output mux bit
  2833                           ;	P2BMX = PORTC0, P2B is on RC0
  2834                           ;	MCLR Pin Enable bit
  2835                           ;	MCLRE = EXTMCLR, MCLR pin enabled, RE3 input pin disabled
  2836   300005                     	org	3145733
  2837   300005  91                 	db	145
  2838                           
  2839                           ;Config register CONFIG4L @ 0x300006
  2840                           ;	Stack Full/Underflow Reset Enable bit
  2841                           ;	STVREN = ON, Stack full/underflow will cause Reset
  2842                           ;	Single-Supply ICSP Enable bit
  2843                           ;	LVP = OFF, Single-Supply ICSP disabled
  2844                           ;	Extended Instruction Set Enable bit
  2845                           ;	XINST = 0x0, unprogrammed default
  2846                           ;	Background Debug
  2847                           ;	DEBUG = OFF, Disabled
  2848   300006                     	org	3145734
  2849   300006  81                 	db	129
  2850                           
  2851                           ; Padding undefined space
  2852   300007                     	org	3145735
  2853   300007  FF                 	db	255
  2854                           
  2855                           ;Config register CONFIG5L @ 0x300008
  2856                           ;	Code Protection Block 0
  2857                           ;	CP0 = OFF, Block 0 (000800-003FFFh) not code-protected
  2858                           ;	Code Protection Block 1
  2859                           ;	CP1 = OFF, Block 1 (004000-007FFFh) not code-protected
  2860                           ;	Code Protection Block 2
  2861                           ;	CP2 = OFF, Block 2 (008000-00BFFFh) not code-protected
  2862                           ;	Code Protection Block 3
  2863                           ;	CP3 = OFF, Block 3 (00C000-00FFFFh) not code-protected
  2864   300008                     	org	3145736
  2865   300008  0F                 	db	15
  2866                           
  2867                           ;Config register CONFIG5H @ 0x300009
  2868                           ;	Boot Block Code Protection bit
  2869                           ;	CPB = OFF, Boot block (000000-0007FFh) not code-protected
  2870                           ;	Data EEPROM Code Protection bit
  2871                           ;	CPD = OFF, Data EEPROM not code-protected
  2872   300009                     	org	3145737
  2873   300009  C0                 	db	192
  2874                           
  2875                           ;Config register CONFIG6L @ 0x30000A
  2876                           ;	Write Protection Block 0
  2877                           ;	WRT0 = OFF, Block 0 (000800-003FFFh) not write-protected
  2878                           ;	Write Protection Block 1
  2879                           ;	WRT1 = OFF, Block 1 (004000-007FFFh) not write-protected
  2880                           ;	Write Protection Block 2
  2881                           ;	WRT2 = OFF, Block 2 (008000-00BFFFh) not write-protected
  2882                           ;	Write Protection Block 3
  2883                           ;	WRT3 = OFF, Block 3 (00C000-00FFFFh) not write-protected
  2884   30000A                     	org	3145738
  2885   30000A  0F                 	db	15
  2886                           
  2887                           ;Config register CONFIG6H @ 0x30000B
  2888                           ;	Configuration Register Write Protection bit
  2889                           ;	WRTC = OFF, Configuration registers (300000-3000FFh) not write-protected
  2890                           ;	Boot Block Write Protection bit
  2891                           ;	WRTB = OFF, Boot Block (000000-0007FFh) not write-protected
  2892                           ;	Data EEPROM Write Protection bit
  2893                           ;	WRTD = OFF, Data EEPROM not write-protected
  2894   30000B                     	org	3145739
  2895   30000B  E0                 	db	224
  2896                           
  2897                           ;Config register CONFIG7L @ 0x30000C
  2898                           ;	Table Read Protection Block 0
  2899                           ;	EBTR0 = OFF, Block 0 (000800-003FFFh) not protected from table reads executed in other
      +                           blocks
  2900                           ;	Table Read Protection Block 1
  2901                           ;	EBTR1 = OFF, Block 1 (004000-007FFFh) not protected from table reads executed in other
      +                           blocks
  2902                           ;	Table Read Protection Block 2
  2903                           ;	EBTR2 = OFF, Block 2 (008000-00BFFFh) not protected from table reads executed in other
      +                           blocks
  2904                           ;	Table Read Protection Block 3
  2905                           ;	EBTR3 = OFF, Block 3 (00C000-00FFFFh) not protected from table reads executed in other
      +                           blocks
  2906   30000C                     	org	3145740
  2907   30000C  0F                 	db	15
  2908                           
  2909                           ;Config register CONFIG7H @ 0x30000D
  2910                           ;	Boot Block Table Read Protection bit
  2911                           ;	EBTRB = OFF, Boot Block (000000-0007FFh) not protected from table reads executed in ot
      +                          her blocks
  2912   30000D                     	org	3145741
  2913   30000D  40                 	db	64
  2914                           tosu	equ	0xFFF
  2915                           tosh	equ	0xFFE
  2916                           tosl	equ	0xFFD
  2917                           stkptr	equ	0xFFC
  2918                           pclatu	equ	0xFFB
  2919                           pclath	equ	0xFFA
  2920                           pcl	equ	0xFF9
  2921                           tblptru	equ	0xFF8
  2922                           tblptrh	equ	0xFF7
  2923                           tblptrl	equ	0xFF6
  2924                           tablat	equ	0xFF5
  2925                           prodh	equ	0xFF4
  2926                           prodl	equ	0xFF3
  2927                           indf0	equ	0xFEF
  2928                           postinc0	equ	0xFEE
  2929                           postdec0	equ	0xFED
  2930                           preinc0	equ	0xFEC
  2931                           plusw0	equ	0xFEB
  2932                           fsr0h	equ	0xFEA
  2933                           fsr0l	equ	0xFE9
  2934                           wreg	equ	0xFE8
  2935                           indf1	equ	0xFE7
  2936                           postinc1	equ	0xFE6
  2937                           postdec1	equ	0xFE5
  2938                           preinc1	equ	0xFE4
  2939                           plusw1	equ	0xFE3
  2940                           fsr1h	equ	0xFE2
  2941                           fsr1l	equ	0xFE1
  2942                           bsr	equ	0xFE0
  2943                           indf2	equ	0xFDF
  2944                           postinc2	equ	0xFDE
  2945                           postdec2	equ	0xFDD
  2946                           preinc2	equ	0xFDC
  2947                           plusw2	equ	0xFDB
  2948                           fsr2h	equ	0xFDA
  2949                           fsr2l	equ	0xFD9
  2950                           status	equ	0xFD8

Data Sizes:
    Strings     0
    Constant    128
    Data        0
    BSS         14
    Persistent  0
    Stack       0

Auto Spaces:
    Space          Size  Autos    Used
    COMRAM           94     31      45
    BANK0           160      0       0
    BANK1           256      0       0
    BANK2           256      0       0
    BANK3           256      0       0
    BANK4           256      0       0
    BANK5           256      0       0
    BANK6           256      0       0
    BANK7           256      0       0
    BANK8           256      0       0
    BANK9           256      0       0
    BANK10          256      0       0
    BANK11          256      0       0
    BANK12          256      0       0
    BANK13          256      0       0
    BANK14          256      0       0
    BANK15           56      0       0

Pointer List with Targets:

    spi_str_interrupt	PTR volatile unsigned char  size(2) Largest target is 6
		 -> NULL(NULL[0]), signal_distribution_packet(COMRAM[6]), 


Critical Paths under _main in COMRAM

    _main->_set_absolute_velocity
    _set_absolute_velocity->_lm629_velocity
    _set_absolute_velocity->_write_data
    _motor_off->_write_data
    _LM629_init->_set_absolute_acceleration
    _set_absolute_acceleration->_write_data
    _filter_module->_write_data
    _write_data->_check_busy
    _write_command->_check_busy
    _check_busy->_read_status
    _read_status->_DATABUS

Critical Paths under _SPI_ISR in COMRAM

    None.

Critical Paths under _main in BANK0

    None.

Critical Paths under _SPI_ISR in BANK0

    None.

Critical Paths under _main in BANK1

    None.

Critical Paths under _SPI_ISR in BANK1

    None.

Critical Paths under _main in BANK2

    None.

Critical Paths under _SPI_ISR in BANK2

    None.

Critical Paths under _main in BANK3

    None.

Critical Paths under _SPI_ISR in BANK3

    None.

Critical Paths under _main in BANK4

    None.

Critical Paths under _SPI_ISR in BANK4

    None.

Critical Paths under _main in BANK5

    None.

Critical Paths under _SPI_ISR in BANK5

    None.

Critical Paths under _main in BANK6

    None.

Critical Paths under _SPI_ISR in BANK6

    None.

Critical Paths under _main in BANK7

    None.

Critical Paths under _SPI_ISR in BANK7

    None.

Critical Paths under _main in BANK8

    None.

Critical Paths under _SPI_ISR in BANK8

    None.

Critical Paths under _main in BANK9

    None.

Critical Paths under _SPI_ISR in BANK9

    None.

Critical Paths under _main in BANK10

    None.

Critical Paths under _SPI_ISR in BANK10

    None.

Critical Paths under _main in BANK11

    None.

Critical Paths under _SPI_ISR in BANK11

    None.

Critical Paths under _main in BANK12

    None.

Critical Paths under _SPI_ISR in BANK12

    None.

Critical Paths under _main in BANK13

    None.

Critical Paths under _SPI_ISR in BANK13

    None.

Critical Paths under _main in BANK14

    None.

Critical Paths under _SPI_ISR in BANK14

    None.

Critical Paths under _main in BANK15

    None.

Critical Paths under _SPI_ISR in BANK15

    None.

Call Graph Tables:

 ---------------------------------------------------------------------------------
 (Depth) Function   	        Calls       Base Space   Used Autos Params    Refs
 ---------------------------------------------------------------------------------
 (0) _main                                                 4     4      0   32890
                                             28 COMRAM     3     3      0
                         _LM629_init
                            _all_off
              _set_absolute_velocity
                           _spi_data
                     _spi_slave_init
 ---------------------------------------------------------------------------------
 (1) _spi_slave_init                                       0     0      0       0
 ---------------------------------------------------------------------------------
 (1) _spi_data                                             1     1      0      15
                                              6 COMRAM     1     1      0
 ---------------------------------------------------------------------------------
 (1) _set_absolute_velocity                               14    13      1    6526
                                             15 COMRAM    13    12      1
                        _chip_select
                     _lm629_velocity
                      _write_command
                         _write_data
 ---------------------------------------------------------------------------------
 (2) _lm629_velocity                                       9     5      4      45
                                              6 COMRAM     9     5      4
 ---------------------------------------------------------------------------------
 (1) _all_off                                              0     0      0    5988
                        _chip_select
                          _motor_off
 ---------------------------------------------------------------------------------
 (2) _motor_off                                            0     0      0    5928
                      _write_command
                         _write_data
 ---------------------------------------------------------------------------------
 (1) _LM629_init                                           2     2      0   20337
                                             25 COMRAM     2     2      0
                         _check_busy
                        _chip_select
                      _filter_module
                        _read_status
          _set_absolute_acceleration
                      _write_command
                         _write_data
 ---------------------------------------------------------------------------------
 (2) _set_absolute_acceleration                           11     7      4    6388
                                             15 COMRAM    10     6      4
                        _chip_select
                      _write_command
                         _write_data
 ---------------------------------------------------------------------------------
 (2) _chip_select                                          1     1      0      60
                                              6 COMRAM     1     1      0
 ---------------------------------------------------------------------------------
 (2) _filter_module                                        0     0      0    5928
                      _write_command
                         _write_data
 ---------------------------------------------------------------------------------
 (2) _write_data                                           2     1      1    4077
                                             13 COMRAM     2     1      1
                            _DATABUS
                        _DATABUS_DIR
                         _check_busy
 ---------------------------------------------------------------------------------
 (2) _write_command                                        1     1      0    1851
                                             13 COMRAM     1     1      0
                            _DATABUS
                        _DATABUS_DIR
                         _check_busy
 ---------------------------------------------------------------------------------
 (3) _check_busy                                           1     1      0     938
                                             12 COMRAM     1     1      0
                        _read_status
 ---------------------------------------------------------------------------------
 (4) _read_status                                          1     1      0     914
                                             11 COMRAM     1     1      0
                            _DATABUS
                        _DATABUS_DIR
 ---------------------------------------------------------------------------------
 (5) _DATABUS_DIR                                          1     1      0      30
                                              6 COMRAM     1     1      0
 ---------------------------------------------------------------------------------
 (5) _DATABUS                                              5     4      1     861
                                              6 COMRAM     5     4      1
 ---------------------------------------------------------------------------------
 Estimated maximum stack depth 5
 ---------------------------------------------------------------------------------
 (Depth) Function   	        Calls       Base Space   Used Autos Params    Refs
 ---------------------------------------------------------------------------------
 (7) _SPI_ISR                                              6     6      0       0
                                              0 COMRAM     6     6      0
 ---------------------------------------------------------------------------------
 Estimated maximum stack depth 7
 ---------------------------------------------------------------------------------

 Call Graph Graphs:

 _main (ROOT)
   _LM629_init
     _check_busy
       _read_status
         _DATABUS
         _DATABUS_DIR
     _chip_select
     _filter_module
       _write_command
         _DATABUS
         _DATABUS_DIR
         _check_busy
       _write_data
         _DATABUS
         _DATABUS_DIR
         _check_busy
     _read_status
     _set_absolute_acceleration
       _chip_select
       _write_command
       _write_data
     _write_command
     _write_data
   _all_off
     _chip_select
     _motor_off
       _write_command
       _write_data
   _set_absolute_velocity
     _chip_select
     _lm629_velocity
     _write_command
     _write_data
   _spi_data
   _spi_slave_init

 _SPI_ISR (ROOT)

 Address spaces:
Name               Size   Autos  Total    Cost      Usage
BIGRAM             F37      0       0      52        0.0%
EEDATA             400      0       0       0        0.0%
BITBANK14          100      0       0      34        0.0%
BANK14             100      0       0      32        0.0%
BITBANK13          100      0       0      30        0.0%
BANK13             100      0       0      31        0.0%
BITBANK12          100      0       0      28        0.0%
BANK12             100      0       0      29        0.0%
BITBANK11          100      0       0      26        0.0%
BANK11             100      0       0      27        0.0%
BITBANK10          100      0       0      24        0.0%
BANK10             100      0       0      25        0.0%
BITBANK9           100      0       0      22        0.0%
BANK9              100      0       0      23        0.0%
BITBANK8           100      0       0      20        0.0%
BANK8              100      0       0      21        0.0%
BITBANK7           100      0       0      18        0.0%
BANK7              100      0       0      19        0.0%
BITBANK6           100      0       0      16        0.0%
BANK6              100      0       0      17        0.0%
BITBANK5           100      0       0      14        0.0%
BANK5              100      0       0      15        0.0%
BITBANK4           100      0       0      12        0.0%
BANK4              100      0       0      13        0.0%
BITBANK3           100      0       0      10        0.0%
BANK3              100      0       0      11        0.0%
BITBANK2           100      0       0       8        0.0%
BANK2              100      0       0       9        0.0%
BITBANK1           100      0       0       6        0.0%
BANK1              100      0       0       7        0.0%
BITBANK0            A0      0       0       4        0.0%
BANK0               A0      0       0       5        0.0%
BITCOMRAM           5E      0       0       0        0.0%
COMRAM              5E     1F      2D       1       47.9%
BITBANK15           38      0       0      35        0.0%
BANK15              38      0       0      36        0.0%
BITBIGSFRlllhh      24      0       0      48        0.0%
BITBIGSFRllhhhh     22      0       0      43        0.0%
BITBIGSFRhl         21      0       0      38        0.0%
BITBIGSFRllhhlh      E      0       0      45        0.0%
BITBIGSFRhh          D      0       0      37        0.0%
BITBIGSFRllhl        B      0       0      47        0.0%
BITBIGSFRllhhhh      6      0       0      44        0.0%
BITBIGSFRllhhll      6      0       0      46        0.0%
BITBIGSFRlhh         4      0       0      39        0.0%
BITBIGSFRlllll       4      0       0      51        0.0%
BITBIGSFRllhhhh      3      0       0      42        0.0%
BITBIGSFRllllh       2      0       0      50        0.0%
BITBIGSFRlhlh        1      0       0      40        0.0%
BITBIGSFRlllhl       1      0       0      49        0.0%
BITBIGSFRlhll        1      0       0      41        0.0%
BIGSFR               0      0       0     200        0.0%
BITSFR_1             0      0       0     200        0.0%
SFR_1                0      0       0     200        0.0%
BITSFR               0      0       0     200        0.0%
SFR                  0      0       0     200        0.0%
STACK                0      0       0       2        0.0%
NULL                 0      0       0       0        0.0%
ABS                  0      0      2D      33        0.0%
DATA                 0      0      2D       3        0.0%
CODE                 0      0       0       0        0.0%


Microchip Technology PIC18 Macro Assembler V2.40 build 20220703182018 
Symbol Table                                                                                   Wed Jan 11 23:42:40 2023

                                             u10 1778                                               u11 1774  
                                             u20 1798                                               u21 1794  
                          _set_absolute_velocity 14E8                                    _filter_module 1726  
                                            l111 189A                                              l120 1694  
                                            l105 17E0                                              l114 1810  
                                            l123 1724                                              l140 17A4  
                                            l134 1418                                              l230 18A2  
                                            l160 186E                                              l146 1270  
                                            l155 1622                                              l227 183C  
                                            l172 1764                                              l157 1632  
                                            l181 16E2                                              l192 15AA  
                                            l169 1884                                              l921 1768  
                                            l923 1778                                              l925 1788  
                                            l927 1798                                              _GIE 007F97  
                                            u200 1616                                              u201 1612  
                                            u400 11BC                                              u401 11B4  
                                            u410 11D8                                              u170 15BE  
                                            u411 11D0                                              u171 15BA  
                                            u420 11F4                                              u340 1094  
                                            u180 15DA                                              u500 131A  
                                            u421 11EC                                              u341 1090  
                                            u181 15D6                                              u501 1316  
                                            u430 1210                                              u190 15F8  
                                            u510 132C                                              u431 1208  
                                            u191 15F4                                              u511 1328  
                                            u440 122C                                              u408 11BE  
                                            u520 1378                                              u441 1224  
                                            u521 1374                                              u450 1248  
                                            u418 11DA                                              u530 138A  
                                            u451 1240                                              u355 112A  
                                            u531 1386                                              u460 1264  
                                            u428 11F6                                              u380 1196  
                                            u540 13C2                                              u461 125C  
                                            u381 1192                                              u365 114E  
                                            u541 13BE                                              u438 1212  
                                            u390 11A6                                              u470 189A  
                                            u550 13D4                                              u391 11A0  
                                            u375 116E                                              u471 1896  
                                            u551 13D0                                              u607 1292  
                                            u448 122E                                              u480 12D0  
                                            u560 1502                                              u481 12CC  
                                            u617 12A0                                              u561 14FE  
                                            u458 124A                                              u490 12E2  
                                            u570 1520                                              u491 12DE  
                                            u627 12B0                                              u571 151C  
                                            u468 1266                                              u396 11A8  
                                            u637 1338                                              u647 1346  
                                            u657 1358                                              u667 162C  
                                            u587 1470                                              u597 148C  
                                __end_of_DATABUS 1272                                    write_data@LSB 000E  
                                  write_data@MSB 000F                                              wreg 000FE8  
                         lm629_velocity@velocity 000B                                             l1021 15AE  
                                           l1031 15F8                                             l1023 15BE  
                                           l1033 1604                                             l1025 15CA  
                                           l1035 1616                                             l1027 15DA  
                                           l1029 15E6                                             l1037 162A  
                                           l1161 1812                                             l1171 1832  
                                           l1163 1818                                             l1421 1094  
                                           l1501 170A                                             l1181 189E  
                                           l1173 1834                                             l1165 182C  
                                           l1423 117E                                             l1503 1710  
                                           l1511 17A8                                             l1175 1836  
                                           l1167 182E                                             l1425 1186  
                                           l1441 17F0                                             l1433 17E2  
                                           l1505 1712                                             l1521 169C  
                                           l1601 1330                                             l1513 17D0  
                                           l1177 1838                                             l1169 1830  
                                           l1427 1196                                             l1419 1084  
                                           l1451 180E                                             l1443 1802  
                                           l1435 17E8                                             l1507 1718  
                                           l1531 16B2                                             l1523 16A0  
                                           l1611 1352                                             l1603 1336  
                                           l1179 183A                                             l1429 126E  
                                           l1445 1804                                             l1437 17EA  
                                           l1509 171A                                             l1461 1636  
                                           l1517 1726                                             l1541 16DC  
                                           l1533 16B8                                             l1525 16A4  
                                           l1613 1360                                             l1605 133E  
                                           l1701 143E                                             l1447 1808  
                                           l1439 17EE                                             l1455 1886  
                                           l1471 165A                                             l1463 1640  
                                           l1535 16C2                                             l1527 16A8  
                                           l1519 1698                                             l1631 13D8  
                                           l1623 138E                                             l1615 1366  
                                           l1607 1340                                             l1551 1276  
                                           l1543 1858                                             l1711 144E  
                                           l1703 1442                                             l1449 180A  
                                           l1481 167A                                             l1473 1660  
                                           l1465 1642                                             l1537 16CC  
                                           l1529 16AC                                             l1625 13B0  
                                           l1617 1378                                             l1609 1350  
                                           l1561 1280                                             l1553 1278  
                                           l1545 1272                                             l1633 1870  
                                           l1641 150A                                             l1721 145E  
                                           l1713 1450                                             l1705 1446  
                                           l1459 188C                                             l1491 16E6  
                                           l1483 1680                                             l1475 1662  
                                           l1467 1648                                             l1539 16D6  
                                           l1627 13C2                                             l1571 128A  
                                           l1563 1282                                             l1555 127A  
                                           l1547 1272                                             l1643 1510  
                                           l1651 1524                                             l1635 14EA  
                                           l1731 149A                                             l1723 1462  
                                           l1715 1452                                             l1707 144A  
                                           l1493 16F0                                             l1485 1682  
                                           l1477 1668                                             l1469 164A  
                                           l1581 12AA                                             l1573 1290  
                                           l1565 1284                                             l1557 127C  
                                           l1549 1274                                             l1661 1570  
                                           l1653 154E                                             l1637 14F2  
                                           l1741 14B0                                             l1733 149E  
                                           l1725 1466                                             l1717 1456  
                                           l1709 144C                                             l1495 16F2  
                                           l1487 1688                                             l1479 166A  
                                           l1583 12B8                                             l1575 1298  
                                           l1567 1286                                             l1559 127E  
                                           l1671 1594                                             l1663 1574  
                                           l1655 1564                                             l1639 1502  
                                           l1751 14C4                                             l1743 14B4  
                                           l1735 14A4                                             l1727 147E  
                                           l1719 145A                                             l1497 16F8  
                                           l1489 168A                                             l1593 12E6  
                                           l1585 12BE                                             l1577 129A  
                                           l1569 1288                                             l1673 159E  
                                           l1665 157A                                             l1657 1568  
                                           l1753 14C8                                             l1745 14B8  
                                           l1737 14A8                                             l1729 1482  
                                           l1499 16FA                                             l1595 1308  
                                           l1587 12D0                                             l1579 12A8  
                                           l1675 15A4                                             l1667 1580  
                                           l1659 156C                                             l1755 14CC  
                                           l1747 14BC                                             l1739 14AC  
                                           l1691 142A                                             l1683 141A  
                                ?_spi_slave_init 0001                                             l1597 131A  
                                           l1669 158A                                             l1757 14D6  
                                           l1749 14C0                                             l1693 142E  
                                           l1685 141E                                             l1839 1538  
                                           l1695 1432                                             l1687 1420  
                                           l1697 1436                                             l1689 1424  
                                           l1699 143A                                             _PEIE 007F96  
                                           _RCON 000FD0                                             _main 141A  
                                __end_of_SPI_ISR 00E0                                             fsr1h 000FE2  
                                           fsr2h 000FDA                                             indf1 000FE7  
                                           indf2 000FDF                                             fsr1l 000FE1  
                                           fsr2l 000FD9                                             btemp 002E  
                                           prodh 000FF4                                             prodl 000FF3  
                                           start 00E0                                     ___param_bank 000000  
                                spi_data@tx_data 0007                                   ?_filter_module 0001  
                                          ?_main 0001                                            i2l242 00C6  
                                          i2l237 0060                                            i2l245 00CC  
                                          _TRISA 000F92                                            _TRISB 000F93  
                                          _TRISC 000F94                                            _TRISD 000F95  
                                __end_of_all_off 1886                                     ?_read_status 0001  
                                          tablat 000FF5                                            ttemp5 002F  
                                          ttemp6 0032                                            ttemp7 0036  
                                          status 000FD8                                            wtemp8 002F  
                 set_absolute_acceleration@motor 0014                                  __initialization 183E  
                                   __end_of_main 14E8                           ?_set_absolute_velocity 0010  
                               ??_lm629_velocity 000B                                        ??_DATABUS 0008  
                                         ??_main 001D                                    __activetblptr 000002  
             __end_oflm629_velocity@lookup_table 1081                       lm629_velocity@lookup_table 1001  
                                         _ADCON0 000FC2                                           _ADCON1 000FC1  
                                      ??_SPI_ISR 0001                                           _ANSELA 000F38  
                                         _ANSELB 000F39                                           _ANSELC 000F3A  
                                         _ANSELD 000F3B                                           _ANSELE 000F3C  
                                         i2l1351 0028                                           i2l1361 0064  
                                         i2l1353 002C                                           i2l1363 0070  
                                         i2l1371 009C                                           i2l1355 003E  
                                         i2l1373 00C8                                           i2l1365 007C  
                                         i2l1357 0046                                           i2l1349 001A  
                                         i2l1367 0084                                           i2l1359 0058  
                                         i2l1841 00B0                                           _INTCON 000FF2  
                              read_status@status 000C                                           _SRCON0 000F47  
                                         _SSP1IE 007CEB      set_absolute_velocity@trajectory_control_MSB 0018  
                                ??_filter_module 0010                                           clear_0 1844  
                                      ??_all_off 0010                                           isa$std 000001  
                                   ??_LM629_init 001A      set_absolute_acceleration@acceleration_value 0010  
                                   __mediumconst 0000                                 __end_of_spi_data 18A4  
                                         tblptrh 000FF7                                           tblptrl 000FF6  
                                         tblptru 000FF8                       set_absolute_velocity@motor 0017  
                                     __accesstop 0060                          __end_of__initialization 184A  
         set_absolute_acceleration@high_word_LSB 0017           set_absolute_acceleration@high_word_MSB 0016  
                           write_command@command 000E                                    ___rparam_used 000001  
                                 __pcstackCOMRAM 0001                               __end_of_LM629_init 141A  
              __end_of_set_absolute_acceleration 16E4                                 ??_spi_slave_init 0007  
                                     _check_busy 1886                                          _CM1CON0 000F79  
                                        _CM2CON0 000F78                                          _DATABUS 1082  
                                        _HLVDCON 000F9C                                    ??_DATABUS_DIR 0007  
                                        i2u31_40 0028                                          i2u31_41 0024  
                                        i2u32_40 003E                                          i2u32_41 003A  
                                        i2u33_40 0058                                          i2u33_41 0054  
                                        _SSP1BUF 000FC9                                          _SPI_ISR 0008  
                                 main@dummy_data 001F                                     _classic_ctrl 0020  
                                  _write_command 16E4                                          __Hparam 0000  
                                        __Lparam 0000                          ??_set_absolute_velocity 0011  
                                      ?_spi_data 0001                                     __psmallconst 1000  
                                   DATABUS@byte0 0007                                          __pcinit 183E  
                                        _all_off 1870                                          __ramtop 1000  
                                        __ptext0 141A                                          __ptext1 1812  
                                        __ptext2 189C                                          __ptext3 14E8  
                                        __ptext4 17A6                                          __ptext5 1870  
                                        __ptext6 1858                                          __ptext7 1272  
                                        __ptext8 1696                                          __ptext9 15AC  
                 set_absolute_velocity@analog_in 0010                             end_of_initialization 184A  
                                    ?_check_busy 0001                              __end_of_DATABUS_DIR 17A6  
                                 ?_write_command 0001                                    __Lmediumconst 0000  
                              __end_of_motor_off 1870                                    ??_chip_select 0007  
                                     ??_spi_data 0007                                          postinc0 000FEE  
                                      _PORTAbits 000F80                                        _PORTBbits 000F81  
                                      _PORTCbits 000F82                                        _PORTDbits 000F83  
                                chip_select@chip 0007                                        _TRISAbits 000F92  
                                      _TRISBbits 000F93                                        _TRISCbits 000F94  
                                      _TRISDbits 000F95               set_absolute_velocity@high_word_LSB 0014  
             set_absolute_velocity@high_word_MSB 0013                                       _write_data 1634  
                          __end_of_filter_module 1766                              __end_of_chip_select 1634  
                            start_initialization 183E                                      _DATABUS_DIR 1766  
set_absolute_acceleration@trajectory_control_LSB 0015                                  ??_write_command 000E  
                                       DATABUS@x 000B                                         ?_DATABUS 0007  
                     ?_set_absolute_acceleration 0010                                      __pbssCOMRAM 0020  
              set_absolute_velocity@low_word_LSB 0016                set_absolute_velocity@low_word_MSB 0015  
                                  ??_read_status 000C                                         ?_SPI_ISR 0001  
                     lm629_velocity@analog_value 000F                                   DATABUS_DIR@dir 0007  
                                    _chip_select 15AC                                        __pintcode 0008  
                  __end_of_set_absolute_velocity 15AC                                      ?_write_data 000E  
                                       ?_all_off 0001                                      __smallconst 1000  
                                    DATABUS@dir1 000A            set_absolute_acceleration@low_word_LSB 0019  
          set_absolute_acceleration@low_word_MSB 0018                                     ??_check_busy 000D  
                                       _CTMUCONH 000F45                              __end_of_read_status 1812  
                                       _PIR1bits 000F9E                                        _motor_off 1858  
                                       _SSP1CON1 000FC6                                         _SSP1CON3 000FCB  
                                       _SSP2CON1 000F6C                                         _VREFCON0 000F42  
                                       _VREFCON1 000F41                               __end_of_check_busy 189C  
                              _spi_str_interrupt 0024                                   _lm629_velocity 17A6  
                                   _recording_on 0026                       _signal_distribution_packet 0028  
                                       __Hrparam 0000                                         __Lrparam 0000  
                                     ?_motor_off 0001                           __end_of_lm629_velocity 17E2  
                                    check_busy@x 000D                                       _LM629_init 1272  
                                   ?_DATABUS_DIR 0001                                         __ptext10 1726  
                                       __ptext11 1634                                         __ptext12 16E4  
                                       __ptext13 1886                                         __ptext14 17E2  
                                       __ptext15 1766                                         __ptext16 1082  
                                   _SSP1CON1bits 000FC6                                      _read_status 17E2  
                                       isa$xinst 000000                                         _spi_data 189C  
                                       int$flags 002E                                      LM629_init@x 001B  
                                   _SSP1STATbits 000FC7                      ??_set_absolute_acceleration 0014  
                                ?_lm629_velocity 0007                                         intlevel2 0000  
                                 _spi_slave_init 1812                            __end_of_write_command 1726  
                                  _spi_read_data 0027                                     ?_chip_select 0001  
                                    ??_motor_off 0010                                     ??_write_data 000F  
            set_absolute_velocity@velocity_value 0019                                      ?_LM629_init 0001  
                         __end_of_spi_slave_init 183E                        _set_absolute_acceleration 1696  
                             __end_of_write_data 1696  
